   1               		.file	"main.c"
   2               	__SP_L__ = 0x3d
   3               	__SREG__ = 0x3f
   4               	__tmp_reg__ = 0
   5               	__zero_reg__ = 1
   6               		.text
   7               	.Ltext0:
   8               		.cfi_sections	.debug_frame
   9               		.file 0 "/home/files/projects/led-watch" "main.c"
  11               	display_set_P:
  12               	.LVL0:
  13               	.LFB13:
  14               		.file 1 "led.c"
   1:led.c         **** #define BRIGHTNESS_FACTOR 10
   2:led.c         **** 
   3:led.c         **** static uint8_t _display[5];
   4:led.c         **** 
   5:led.c         **** static const uint8_t display_clear[5] PROGMEM =
   6:led.c         **** {
   7:led.c         **** 	0x00, 0x00, 0x00, 0x00, 0x00
   8:led.c         **** };
   9:led.c         **** 
  10:led.c         **** static void led_init(void)
  11:led.c         **** {
  12:led.c         **** 	/* LED Pins output */
  13:led.c         **** 	DDRB = 0xFF;
  14:led.c         **** 	DDRD |= (1 << 6) | (1 << 5) | (1 << 4);
  15:led.c         **** }
  16:led.c         **** 
  17:led.c         **** static void display_set(const uint8_t *value)
  18:led.c         **** {
  19:led.c         **** 	_display[0] = value[0];
  20:led.c         **** 	_display[1] = value[1];
  21:led.c         **** 	_display[2] = value[2];
  22:led.c         **** 	_display[3] = value[3];
  23:led.c         **** 	_display[4] = value[4];
  24:led.c         **** }
  25:led.c         **** 
  26:led.c         **** static void display_set_P(const uint8_t *value)
  27:led.c         **** {
  15               		.loc 1 27 1 view -0
  16               		.cfi_startproc
  17               	/* prologue: function */
  18               	/* frame size = 0 */
  19               	/* stack size = 0 */
  20               	.L__stack_usage = 0
  21               		.loc 1 27 1 is_stmt 0 view .LVU1
  22 0000 9C01      		movw r18,r24
  28:led.c         **** 	_display[0] = pgm_read_byte(value + 0);
  23               		.loc 1 28 2 is_stmt 1 view .LVU2
  24               	.LBB2:
  25               		.loc 1 28 16 view .LVU3
  26               	.LVL1:
  27               		.loc 1 28 16 view .LVU4
  28               		.loc 1 28 16 view .LVU5
  29 0002 FC01      		movw r30,r24
  30               	/* #APP */
  31               	 ;  28 "led.c" 1
  32 0004 8491      		lpm r24, Z
  33               		
  34               	 ;  0 "" 2
  35               	.LVL2:
  36               		.loc 1 28 16 view .LVU6
  37               	/* #NOAPP */
  38               	.LBE2:
  39               		.loc 1 28 14 is_stmt 0 view .LVU7
  40 0006 A0E0      		ldi r26,lo8(_display)
  41 0008 B0E0      		ldi r27,hi8(_display)
  42 000a 8C93      		st X,r24
  29:led.c         **** 	_display[1] = pgm_read_byte(value + 1);
  43               		.loc 1 29 2 is_stmt 1 view .LVU8
  44               	.LBB3:
  45               		.loc 1 29 16 view .LVU9
  46               	.LVL3:
  47               		.loc 1 29 16 view .LVU10
  48               		.loc 1 29 16 view .LVU11
  49 000c 3196      		adiw r30,1
  50               	.LVL4:
  51               		.loc 1 29 16 is_stmt 0 view .LVU12
  52               	/* #APP */
  53               	 ;  29 "led.c" 1
  54 000e E491      		lpm r30, Z
  55               		
  56               	 ;  0 "" 2
  57               	.LVL5:
  58               		.loc 1 29 16 is_stmt 1 view .LVU13
  59               	/* #NOAPP */
  60               	.LBE3:
  61               		.loc 1 29 14 is_stmt 0 view .LVU14
  62 0010 1196      		adiw r26,1
  63 0012 EC93      		st X,r30
  64 0014 1197      		sbiw r26,1
  30:led.c         **** 	_display[2] = pgm_read_byte(value + 2);
  65               		.loc 1 30 2 is_stmt 1 view .LVU15
  66               	.LBB4:
  67               		.loc 1 30 16 view .LVU16
  68               	.LVL6:
  69               		.loc 1 30 16 view .LVU17
  70               		.loc 1 30 16 view .LVU18
  71 0016 F901      		movw r30,r18
  72               	.LVL7:
  73               		.loc 1 30 16 is_stmt 0 view .LVU19
  74 0018 3296      		adiw r30,2
  75               	.LVL8:
  76               		.loc 1 30 16 view .LVU20
  77               	/* #APP */
  78               	 ;  30 "led.c" 1
  79 001a E491      		lpm r30, Z
  80               		
  81               	 ;  0 "" 2
  82               	.LVL9:
  83               		.loc 1 30 16 is_stmt 1 view .LVU21
  84               	/* #NOAPP */
  85               	.LBE4:
  86               		.loc 1 30 14 is_stmt 0 view .LVU22
  87 001c 1296      		adiw r26,2
  88 001e EC93      		st X,r30
  89 0020 1297      		sbiw r26,2
  31:led.c         **** 	_display[3] = pgm_read_byte(value + 3);
  90               		.loc 1 31 2 is_stmt 1 view .LVU23
  91               	.LBB5:
  92               		.loc 1 31 16 view .LVU24
  93               	.LVL10:
  94               		.loc 1 31 16 view .LVU25
  95               		.loc 1 31 16 view .LVU26
  96 0022 F901      		movw r30,r18
  97               	.LVL11:
  98               		.loc 1 31 16 is_stmt 0 view .LVU27
  99 0024 3396      		adiw r30,3
 100               	.LVL12:
 101               		.loc 1 31 16 view .LVU28
 102               	/* #APP */
 103               	 ;  31 "led.c" 1
 104 0026 E491      		lpm r30, Z
 105               		
 106               	 ;  0 "" 2
 107               	.LVL13:
 108               		.loc 1 31 16 is_stmt 1 view .LVU29
 109               	/* #NOAPP */
 110               	.LBE5:
 111               		.loc 1 31 14 is_stmt 0 view .LVU30
 112 0028 1396      		adiw r26,3
 113 002a EC93      		st X,r30
 114 002c 1397      		sbiw r26,3
  32:led.c         **** 	_display[4] = pgm_read_byte(value + 4);
 115               		.loc 1 32 2 is_stmt 1 view .LVU31
 116               	.LBB6:
 117               		.loc 1 32 16 view .LVU32
 118               	.LVL14:
 119               		.loc 1 32 16 view .LVU33
 120               		.loc 1 32 16 view .LVU34
 121 002e F901      		movw r30,r18
 122               	.LVL15:
 123               		.loc 1 32 16 is_stmt 0 view .LVU35
 124 0030 3496      		adiw r30,4
 125               	.LVL16:
 126               		.loc 1 32 16 view .LVU36
 127               	/* #APP */
 128               	 ;  32 "led.c" 1
 129 0032 E491      		lpm r30, Z
 130               		
 131               	 ;  0 "" 2
 132               	.LVL17:
 133               		.loc 1 32 16 is_stmt 1 view .LVU37
 134               	/* #NOAPP */
 135               	.LBE6:
 136               		.loc 1 32 14 is_stmt 0 view .LVU38
 137 0034 1496      		adiw r26,4
 138 0036 EC93      		st X,r30
 139               	/* epilogue start */
  33:led.c         **** }
 140               		.loc 1 33 1 view .LVU39
 141 0038 0895      		ret
 142               		.cfi_endproc
 143               	.LFE13:
 146               	mode_idle:
 147               	.LFB20:
 148               		.file 2 "main.c"
   1:main.c        **** #include <avr/io.h>
   2:main.c        **** #include <util/delay.h>
   3:main.c        **** #include <avr/pgmspace.h>
   4:main.c        **** #include <avr/interrupt.h>
   5:main.c        **** #include <string.h>
   6:main.c        **** #include <stdint.h>
   7:main.c        **** 
   8:main.c        **** static void tick(void);
   9:main.c        **** 
  10:main.c        **** #include "led.c"
  11:main.c        **** #include "timer.c"
  12:main.c        **** #include "piezo.c"
  13:main.c        **** 
  14:main.c        **** #define MODE_IDLE   0
  15:main.c        **** #define MODE_UART   1
  16:main.c        **** 
  17:main.c        **** #define MODE_CLOCK  2
  18:main.c        **** #define MODE_ALARM  3
  19:main.c        **** #define MODE_RANDOM 4
  20:main.c        **** #define MODE_TEXT   5
  21:main.c        **** 
  22:main.c        **** static volatile uint8_t _mode;
  23:main.c        **** 
  24:main.c        **** static void mode_idle(void)
  25:main.c        **** {
 149               		.loc 2 25 1 is_stmt 1 view -0
 150               		.cfi_startproc
 151               	/* prologue: function */
 152               	/* frame size = 0 */
 153               	/* stack size = 0 */
 154               	.L__stack_usage = 0
  26:main.c        **** 	_mode = MODE_IDLE;
 155               		.loc 2 26 2 view .LVU41
 156               		.loc 2 26 8 is_stmt 0 view .LVU42
 157 003a 1092 0000 		sts _mode,__zero_reg__
  27:main.c        **** 	_beep = 0;
 158               		.loc 2 27 2 is_stmt 1 view .LVU43
 159               		.loc 2 27 8 is_stmt 0 view .LVU44
 160 003e 1092 0000 		sts _beep,__zero_reg__
  28:main.c        **** 	display_set_P(display_clear);
 161               		.loc 2 28 2 is_stmt 1 view .LVU45
 162 0042 80E0      		ldi r24,lo8(display_clear)
 163 0044 90E0      		ldi r25,hi8(display_clear)
 164 0046 00C0      		rjmp display_set_P
 165               	.LVL18:
 166               		.cfi_endproc
 167               	.LFE20:
 170               	uart_rx:
 171               	.LFB27:
 172               		.file 3 "uart.c"
   1:uart.c        **** #define UART_BAUD 9600
   2:uart.c        **** #define _BAUD         (((F_CPU / (UART_BAUD * 16UL))) - 1)
   3:uart.c        **** 
   4:uart.c        **** static void uart_tx_str_P(const char *s);
   5:uart.c        **** 
   6:uart.c        **** static void uart_init(void)
   7:uart.c        **** {
   8:uart.c        **** 	/* Disable Pullups */
   9:uart.c        **** 	PORTD &= ~((1 << 0) | (1 << 1));
  10:uart.c        **** 
  11:uart.c        **** 	UCSRB = (1 << RXEN) | (1 << TXEN);
  12:uart.c        **** 	UCSRC = (1 << UCSZ1) | (1 << UCSZ0);
  13:uart.c        **** 	UBRRL = (uint8_t)(_BAUD & 0xFF);
  14:uart.c        **** 	UBRRH = (uint8_t)((_BAUD >> 8) & 0xFF);
  15:uart.c        **** 
  16:uart.c        **** 	uart_tx_str_P(PSTR("RDY\n"));
  17:uart.c        **** }
  18:uart.c        **** 
  19:uart.c        **** static char uart_rxc(void)
  20:uart.c        **** {
  21:uart.c        **** 	if(!(UCSRA & (1 << RXC)))
  22:uart.c        **** 	{
  23:uart.c        **** 		return -1;
  24:uart.c        **** 	}
  25:uart.c        **** 
  26:uart.c        **** 	return UDR;
  27:uart.c        **** }
  28:uart.c        **** 
  29:uart.c        **** static char uart_rx(void)
  30:uart.c        **** {
 173               		.loc 3 30 1 view -0
 174               		.cfi_startproc
 175               	/* prologue: function */
 176               	/* frame size = 0 */
 177               	/* stack size = 0 */
 178               	.L__stack_usage = 0
 179               	.L4:
  31:uart.c        **** 	while(!(UCSRA & (1 << RXC))) ;
 180               		.loc 3 31 8 discriminator 1 view .LVU47
 181 0048 5F9B      		sbis 0xb,7
 182 004a 00C0      		rjmp .L4
  32:uart.c        **** 	return UDR;
 183               		.loc 3 32 2 view .LVU48
 184               		.loc 3 32 9 is_stmt 0 view .LVU49
 185 004c 8CB1      		in r24,0xc
 186               	/* epilogue start */
  33:uart.c        **** }
 187               		.loc 3 33 1 view .LVU50
 188 004e 0895      		ret
 189               		.cfi_endproc
 190               	.LFE27:
 193               	uart_tx_str_P:
 194               	.LVL19:
 195               	.LFB29:
  34:uart.c        **** 
  35:uart.c        **** static void uart_tx(char c)
  36:uart.c        **** {
  37:uart.c        **** 	while(!(UCSRA & (1 << UDRE))) ;
  38:uart.c        **** 	UDR = c;
  39:uart.c        **** }
  40:uart.c        **** 
  41:uart.c        **** static void uart_tx_str_P(const char *s)
  42:uart.c        **** {
 196               		.loc 3 42 1 is_stmt 1 view -0
 197               		.cfi_startproc
 198               	/* prologue: function */
 199               	/* frame size = 0 */
 200               	/* stack size = 0 */
 201               	.L__stack_usage = 0
 202               		.loc 3 42 1 is_stmt 0 view .LVU52
 203 0050 FC01      		movw r30,r24
  43:uart.c        **** 	register char c;
 204               		.loc 3 43 2 is_stmt 1 view .LVU53
  44:uart.c        **** 	while((c = pgm_read_byte(s++)))
 205               		.loc 3 44 2 view .LVU54
 206               	.LVL20:
 207               	.L7:
 208               		.loc 3 44 8 view .LVU55
 209               	.LBB10:
 210               		.loc 3 44 13 view .LVU56
 211               		.loc 3 44 13 view .LVU57
 212               		.loc 3 44 13 view .LVU58
 213               	/* #APP */
 214               	 ;  44 "uart.c" 1
 215 0052 8491      		lpm r24, Z
 216               		
 217               	 ;  0 "" 2
 218               	.LVL21:
 219               		.loc 3 44 13 view .LVU59
 220               		.loc 3 44 13 is_stmt 0 view .LVU60
 221               	/* #NOAPP */
 222               	.LBE10:
 223               		.loc 3 44 8 view .LVU61
 224 0054 8111      		cpse r24,__zero_reg__
 225 0056 00C0      		rjmp .L8
 226               	/* epilogue start */
  45:uart.c        **** 	{
  46:uart.c        **** 		uart_tx(c);
  47:uart.c        **** 	}
  48:uart.c        **** }
 227               		.loc 3 48 1 view .LVU62
 228 0058 0895      		ret
 229               	.L8:
 230               	.LBB11:
 231               	.LBB12:
  37:uart.c        **** 	UDR = c;
 232               		.loc 3 37 8 is_stmt 1 view .LVU63
 233 005a 5D9B      		sbis 0xb,5
 234 005c 00C0      		rjmp .L8
  38:uart.c        **** }
 235               		.loc 3 38 2 view .LVU64
  38:uart.c        **** }
 236               		.loc 3 38 6 is_stmt 0 view .LVU65
 237 005e 8CB9      		out 0xc,r24
 238 0060 3196      		adiw r30,1
 239               	.LVL22:
  39:uart.c        **** 
 240               		.loc 3 39 1 view .LVU66
 241 0062 00C0      		rjmp .L7
 242               	.LBE12:
 243               	.LBE11:
 244               		.cfi_endproc
 245               	.LFE29:
 247               		.section	.text.startup,"ax",@progbits
 248               	.global	main
 250               	main:
 251               	.LFB36:
  29:main.c        **** }
  30:main.c        **** 
  31:main.c        **** #include "button.c"
  32:main.c        **** #include "font.c"
  33:main.c        **** #include "clock.c"
  34:main.c        **** #include "uart.c"
  35:main.c        **** #include "alarm.c"
  36:main.c        **** #include "random.c"
  37:main.c        **** #include "text.c"
  38:main.c        **** 
  39:main.c        **** int main(void)
  40:main.c        **** {
 252               		.loc 2 40 1 is_stmt 1 view -0
 253               		.cfi_startproc
 254               	/* prologue: function */
 255               	/* frame size = 0 */
 256               	/* stack size = 0 */
 257               	.L__stack_usage = 0
  41:main.c        **** 	led_init();
 258               		.loc 2 41 2 view .LVU68
 259               	.LBB27:
 260               	.LBI27:
  10:led.c         **** {
 261               		.loc 1 10 13 view .LVU69
 262               	.LBB28:
  13:led.c         **** 	DDRD |= (1 << 6) | (1 << 5) | (1 << 4);
 263               		.loc 1 13 2 view .LVU70
  13:led.c         **** 	DDRD |= (1 << 6) | (1 << 5) | (1 << 4);
 264               		.loc 1 13 7 is_stmt 0 view .LVU71
 265 0000 8FEF      		ldi r24,lo8(-1)
 266 0002 87BB      		out 0x17,r24
  14:led.c         **** }
 267               		.loc 1 14 2 is_stmt 1 view .LVU72
 268 0004 81B3      		in r24,0x11
  14:led.c         **** }
 269               		.loc 1 14 7 is_stmt 0 view .LVU73
 270 0006 8067      		ori r24,lo8(112)
 271 0008 81BB      		out 0x11,r24
 272               	.LBE28:
 273               	.LBE27:
  42:main.c        **** 	button_init();
 274               		.loc 2 42 2 is_stmt 1 view .LVU74
 275               	.LBB29:
 276               	.LBI29:
 277               		.file 4 "button.c"
   1:button.c      **** #define BUTTON_COUNT           4
   2:button.c      **** #define BUTTON_PRESS_TICKS    12
   3:button.c      **** 
   4:button.c      **** static uint8_t button_ticks[BUTTON_COUNT];
   5:button.c      **** 
   6:button.c      **** static void button_event(uint8_t button);
   7:button.c      **** 
   8:button.c      **** static void button_init(void)
 278               		.loc 4 8 13 view .LVU75
 279               	.LBB30:
   9:button.c      **** {
  10:button.c      **** 	PORTD |= (1 << 0) | (1 << 1) | (1 << 2) | (1 << 3);
 280               		.loc 4 10 2 view .LVU76
 281 000a 82B3      		in r24,0x12
 282               		.loc 4 10 8 is_stmt 0 view .LVU77
 283 000c 8F60      		ori r24,lo8(15)
 284 000e 82BB      		out 0x12,r24
 285               	.LBE30:
 286               	.LBE29:
  43:main.c        **** 	timer_init();
 287               		.loc 2 43 2 is_stmt 1 view .LVU78
 288               	.LBB31:
 289               	.LBI31:
 290               		.file 5 "timer.c"
   1:timer.c       **** #define SECOND_TICKS 1800
   2:timer.c       **** 
   3:timer.c       **** static uint8_t
   4:timer.c       **** 	_subticks,
   5:timer.c       **** 	_ticks;
   6:timer.c       **** 
   7:timer.c       **** static volatile uint8_t
   8:timer.c       **** 	_seconds,
   9:timer.c       **** 	_minutes,
  10:timer.c       **** 	_hours;
  11:timer.c       **** 
  12:timer.c       **** static void timer_init(void)
 291               		.loc 5 12 13 view .LVU79
 292               	.LBB32:
  13:timer.c       **** {
  14:timer.c       **** 	TCCR0A |= (1 << WGM01);
 293               		.loc 5 14 2 view .LVU80
 294 0010 80B7      		in r24,0x30
 295               		.loc 5 14 9 is_stmt 0 view .LVU81
 296 0012 8260      		ori r24,lo8(2)
 297 0014 80BF      		out 0x30,r24
  15:timer.c       **** 	TCCR0B |= (1 << CS01);
 298               		.loc 5 15 2 is_stmt 1 view .LVU82
 299 0016 83B7      		in r24,0x33
 300               		.loc 5 15 9 is_stmt 0 view .LVU83
 301 0018 8260      		ori r24,lo8(2)
 302 001a 83BF      		out 0x33,r24
  16:timer.c       **** 	OCR0A = 225 - 1;
 303               		.loc 5 16 2 is_stmt 1 view .LVU84
 304               		.loc 5 16 8 is_stmt 0 view .LVU85
 305 001c 80EE      		ldi r24,lo8(-32)
 306 001e 86BF      		out 0x36,r24
  17:timer.c       **** 	TIMSK |= (1 << OCIE0A);
 307               		.loc 5 17 2 is_stmt 1 view .LVU86
 308 0020 89B7      		in r24,0x39
 309               		.loc 5 17 8 is_stmt 0 view .LVU87
 310 0022 8160      		ori r24,lo8(1)
 311 0024 89BF      		out 0x39,r24
  18:timer.c       **** 	sei();
 312               		.loc 5 18 2 is_stmt 1 view .LVU88
 313               	/* #APP */
 314               	 ;  18 "timer.c" 1
 315 0026 7894      		sei
 316               	 ;  0 "" 2
 317               	/* #NOAPP */
 318               	.LBE32:
 319               	.LBE31:
  44:main.c        **** 	for(;;)
 320               		.loc 2 44 2 view .LVU89
  45:main.c        **** 	{
  46:main.c        **** next:
  47:main.c        **** 		if(_mode == MODE_UART)
 321               		.loc 2 47 3 view .LVU90
 322               	.L17:
 323               	.LBB33:
  48:main.c        **** 		{
  49:main.c        **** 			uint8_t i, j;
  50:main.c        **** 
  51:main.c        **** 			/* Command Start */
  52:main.c        **** 			while(uart_rxc() != 'A')
  53:main.c        **** 			{
  54:main.c        **** 				if(_mode != MODE_UART)
 324               		.loc 2 54 5 view .LVU91
 325               		.loc 2 54 14 is_stmt 0 view .LVU92
 326 0028 8091 0000 		lds r24,_mode
 327               		.loc 2 54 7 view .LVU93
 328 002c 8130      		cpi r24,lo8(1)
 329 002e 01F4      		brne .L17
  52:main.c        **** 			{
 330               		.loc 2 52 21 is_stmt 1 view .LVU94
 331               	.LBB34:
 332               	.LBI34:
  19:uart.c        **** {
 333               		.loc 3 19 13 view .LVU95
 334               	.LBB35:
  21:uart.c        **** 	{
 335               		.loc 3 21 2 view .LVU96
  21:uart.c        **** 	{
 336               		.loc 3 21 4 is_stmt 0 view .LVU97
 337 0030 5F9B      		sbis 0xb,7
 338 0032 00C0      		rjmp .L17
  26:uart.c        **** }
 339               		.loc 3 26 2 is_stmt 1 view .LVU98
  26:uart.c        **** }
 340               		.loc 3 26 9 is_stmt 0 view .LVU99
 341 0034 8CB1      		in r24,0xc
 342               	.LBE35:
 343               	.LBE34:
  52:main.c        **** 			{
 344               		.loc 2 52 21 view .LVU100
 345 0036 8134      		cpi r24,lo8(65)
 346 0038 01F4      		brne .L17
  55:main.c        **** 				{
  56:main.c        **** 					goto next;
  57:main.c        **** 				}
  58:main.c        **** 			}
  59:main.c        **** 
  60:main.c        **** 			/* Set Clock Command: */
  61:main.c        **** 			/* [WEEKDAY 0-6][HOUR 00-23][MINUTE 0-59][SECOND 0-59] */
  62:main.c        **** 			_hours = uart_rx();
 347               		.loc 2 62 4 is_stmt 1 view .LVU101
 348               		.loc 2 62 13 is_stmt 0 view .LVU102
 349 003a 00D0      		rcall uart_rx
 350               	.LVL23:
 351               		.loc 2 62 11 view .LVU103
 352 003c 8093 0000 		sts _hours,r24
  63:main.c        **** 			_minutes = uart_rx();
 353               		.loc 2 63 4 is_stmt 1 view .LVU104
 354               		.loc 2 63 15 is_stmt 0 view .LVU105
 355 0040 00D0      		rcall uart_rx
 356               	.LVL24:
 357               		.loc 2 63 13 view .LVU106
 358 0042 8093 0000 		sts _minutes,r24
  64:main.c        **** 			_seconds = uart_rx();
 359               		.loc 2 64 4 is_stmt 1 view .LVU107
 360               		.loc 2 64 15 is_stmt 0 view .LVU108
 361 0046 00D0      		rcall uart_rx
 362               	.LVL25:
 363               		.loc 2 64 13 view .LVU109
 364 0048 8093 0000 		sts _seconds,r24
  65:main.c        **** 
  66:main.c        **** 			/* Set Alarms Command: */
  67:main.c        **** 			/* [ALARM COUNT 0-8] */
  68:main.c        **** 			/* N x [WEEKDAY 0-6][HOUR 00-23][MINUTE 0-59][ICON 5 Bytes] */
  69:main.c        **** 			_alarms_count = uart_rx();
 365               		.loc 2 69 4 is_stmt 1 view .LVU110
 366               		.loc 2 69 20 is_stmt 0 view .LVU111
 367 004c 00D0      		rcall uart_rx
 368               	.LVL26:
 369               		.loc 2 69 18 view .LVU112
 370 004e 8093 0000 		sts _alarms_count,r24
  70:main.c        **** 			for(i = 0; i < _alarms_count; ++i)
 371               		.loc 2 70 4 is_stmt 1 view .LVU113
 372               	.LVL27:
 373               		.loc 2 70 10 is_stmt 0 view .LVU114
 374 0052 C0E0      		ldi r28,0
 375               	.LVL28:
 376               	.L18:
 377               		.loc 2 70 17 is_stmt 1 discriminator 1 view .LVU115
 378 0054 8091 0000 		lds r24,_alarms_count
 379 0058 C817      		cp r28,r24
 380 005a 00F0      		brlo .L20
  71:main.c        **** 			{
  72:main.c        **** 				_alarms[i].Hours = uart_rx();
  73:main.c        **** 				_alarms[i].Minutes = uart_rx();
  74:main.c        **** 				for(j = 0; j < 5; ++j)
  75:main.c        **** 				{
  76:main.c        **** 					_alarms[i].Icon[j] = uart_rx();
  77:main.c        **** 				}
  78:main.c        **** 			}
  79:main.c        **** 
  80:main.c        **** 			j = 0;
 381               		.loc 2 80 6 is_stmt 0 view .LVU116
 382 005c C0E0      		ldi r28,0
 383               	.LVL29:
 384               	.L21:
  81:main.c        **** 			do
 385               		.loc 2 81 4 is_stmt 1 discriminator 1 view .LVU117
  82:main.c        **** 			{
  83:main.c        **** 				i = uart_rx();
 386               		.loc 2 83 5 discriminator 1 view .LVU118
 387               		.loc 2 83 9 is_stmt 0 discriminator 1 view .LVU119
 388 005e 00D0      		rcall uart_rx
 389               	.LVL30:
  84:main.c        **** 				_text[j++] = i;
 390               		.loc 2 84 5 is_stmt 1 discriminator 1 view .LVU120
 391 0060 EC2F      		mov r30,r28
 392               		.loc 2 84 12 is_stmt 0 discriminator 1 view .LVU121
 393 0062 F0E0      		ldi r31,0
 394 0064 CF5F      		subi r28,lo8(-(1))
 395               	.LVL31:
 396               		.loc 2 84 16 discriminator 1 view .LVU122
 397 0066 E050      		subi r30,lo8(-(_text))
 398 0068 F040      		sbci r31,hi8(-(_text))
 399               	.LVL32:
 400               		.loc 2 84 16 discriminator 1 view .LVU123
 401 006a 8083      		st Z,r24
  85:main.c        **** 			}
  86:main.c        **** 			while(i != 0xFF);
 402               		.loc 2 86 12 is_stmt 1 discriminator 1 view .LVU124
 403 006c 8F3F      		cpi r24,lo8(-1)
 404 006e 01F4      		brne .L21
  87:main.c        **** 
  88:main.c        **** 			uart_tx_str_P(PSTR("ACK\n"));
 405               		.loc 2 88 4 view .LVU125
 406               	.LBB36:
 407               		.loc 2 88 18 view .LVU126
 408               		.loc 2 88 18 view .LVU127
 409               	.LBE36:
 410               		.loc 2 88 4 is_stmt 0 view .LVU128
 411 0070 80E0      		ldi r24,lo8(__c.8)
 412 0072 90E0      		ldi r25,hi8(__c.8)
 413               	.LVL33:
 414               		.loc 2 88 4 view .LVU129
 415 0074 00D0      		rcall uart_tx_str_P
 416               	.LVL34:
  89:main.c        **** 			mode_uart_button();
 417               		.loc 2 89 4 is_stmt 1 view .LVU130
 418               	.LBB37:
 419               	.LBI37:
  49:uart.c        **** 
  50:uart.c        **** static const uint8_t _uart_icon[5] PROGMEM =
  51:uart.c        **** {
  52:uart.c        **** 	0b01000UL,
  53:uart.c        **** 	0b11111UL,
  54:uart.c        **** 	0b01000UL,
  55:uart.c        **** 	0b01011UL,
  56:uart.c        **** 	0b01010UL
  57:uart.c        **** };
  58:uart.c        **** 
  59:uart.c        **** static void mode_uart(void)
  60:uart.c        **** {
  61:uart.c        **** 	display_set_P(_uart_icon);
  62:uart.c        **** 	uart_init();
  63:uart.c        **** 	_mode = MODE_UART;
  64:uart.c        **** }
  65:uart.c        **** 
  66:uart.c        **** static void mode_uart_button(void)
 420               		.loc 3 66 13 view .LVU131
 421               	.LBB38:
  67:uart.c        **** {
  68:uart.c        **** 	UCSRB = 0;
 422               		.loc 3 68 2 view .LVU132
 423               		.loc 3 68 8 is_stmt 0 view .LVU133
 424 0076 1AB8      		out 0xa,__zero_reg__
  69:uart.c        **** 	button_init();
 425               		.loc 3 69 2 is_stmt 1 view .LVU134
 426               	.LBB39:
 427               	.LBI39:
   8:button.c      **** {
 428               		.loc 4 8 13 view .LVU135
 429               	.LBB40:
 430               		.loc 4 10 2 view .LVU136
 431 0078 82B3      		in r24,0x12
 432               		.loc 4 10 8 is_stmt 0 view .LVU137
 433 007a 8F60      		ori r24,lo8(15)
 434 007c 82BB      		out 0x12,r24
 435               	.LBE40:
 436               	.LBE39:
  70:uart.c        **** 	mode_idle();
 437               		.loc 3 70 2 is_stmt 1 view .LVU138
 438 007e 00D0      		rcall mode_idle
 439               	.LVL35:
  71:uart.c        **** }
 440               		.loc 3 71 1 is_stmt 0 view .LVU139
 441 0080 00C0      		rjmp .L17
 442               	.LVL36:
 443               	.L20:
 444               		.loc 3 71 1 view .LVU140
 445               	.LBE38:
 446               	.LBE37:
  72:main.c        **** 				_alarms[i].Minutes = uart_rx();
 447               		.loc 2 72 5 is_stmt 1 view .LVU141
  72:main.c        **** 				_alarms[i].Minutes = uart_rx();
 448               		.loc 2 72 15 is_stmt 0 view .LVU142
 449 0082 EC2E      		mov r14,r28
 450 0084 F12C      		mov r15,__zero_reg__
  72:main.c        **** 				_alarms[i].Minutes = uart_rx();
 451               		.loc 2 72 24 view .LVU143
 452 0086 00D0      		rcall uart_rx
 453               	.LVL37:
 454 0088 282F      		mov r18,r24
  72:main.c        **** 				_alarms[i].Minutes = uart_rx();
 455               		.loc 2 72 22 view .LVU144
 456 008a C701      		movw r24,r14
 457 008c 67E0      		ldi r22,lo8(7)
 458 008e 70E0      		ldi r23,0
 459 0090 00D0      		rcall __mulhi3
 460 0092 8C01      		movw r16,r24
 461 0094 0050      		subi r16,lo8(-(_alarms))
 462 0096 1040      		sbci r17,hi8(-(_alarms))
 463 0098 F801      		movw r30,r16
 464 009a 2183      		std Z+1,r18
  73:main.c        **** 				for(j = 0; j < 5; ++j)
 465               		.loc 2 73 5 is_stmt 1 view .LVU145
  73:main.c        **** 				for(j = 0; j < 5; ++j)
 466               		.loc 2 73 26 is_stmt 0 view .LVU146
 467 009c 00D0      		rcall uart_rx
 468               	.LVL38:
  73:main.c        **** 				for(j = 0; j < 5; ++j)
 469               		.loc 2 73 24 view .LVU147
 470 009e F801      		movw r30,r16
 471 00a0 8083      		st Z,r24
  74:main.c        **** 				{
 472               		.loc 2 74 5 is_stmt 1 view .LVU148
 473               	.LVL39:
  74:main.c        **** 				{
 474               		.loc 2 74 18 view .LVU149
  73:main.c        **** 				for(j = 0; j < 5; ++j)
 475               		.loc 2 73 24 is_stmt 0 view .LVU150
 476 00a2 00E0      		ldi r16,0
 477 00a4 10E0      		ldi r17,0
 478               	.LVL40:
 479               	.L19:
  76:main.c        **** 				}
 480               		.loc 2 76 6 is_stmt 1 discriminator 3 view .LVU151
  76:main.c        **** 				}
 481               		.loc 2 76 27 is_stmt 0 discriminator 3 view .LVU152
 482 00a6 00D0      		rcall uart_rx
 483               	.LVL41:
 484 00a8 282F      		mov r18,r24
  76:main.c        **** 				}
 485               		.loc 2 76 25 discriminator 3 view .LVU153
 486 00aa C701      		movw r24,r14
 487 00ac 67E0      		ldi r22,lo8(7)
 488 00ae 70E0      		ldi r23,0
 489 00b0 00D0      		rcall __mulhi3
 490 00b2 8050      		subi r24,lo8(-(_alarms))
 491 00b4 9040      		sbci r25,hi8(-(_alarms))
 492 00b6 FC01      		movw r30,r24
 493 00b8 E00F      		add r30,r16
 494 00ba F11F      		adc r31,r17
 495 00bc 2283      		std Z+2,r18
  74:main.c        **** 				{
 496               		.loc 2 74 23 is_stmt 1 discriminator 3 view .LVU154
 497               	.LVL42:
  74:main.c        **** 				{
 498               		.loc 2 74 18 discriminator 3 view .LVU155
 499 00be 0F5F      		subi r16,-1
 500 00c0 1F4F      		sbci r17,-1
 501               	.LVL43:
  74:main.c        **** 				{
 502               		.loc 2 74 18 is_stmt 0 discriminator 3 view .LVU156
 503 00c2 0530      		cpi r16,5
 504 00c4 1105      		cpc r17,__zero_reg__
 505 00c6 01F4      		brne .L19
  70:main.c        **** 			{
 506               		.loc 2 70 34 is_stmt 1 discriminator 2 view .LVU157
 507 00c8 CF5F      		subi r28,lo8(-(1))
 508               	.LVL44:
  70:main.c        **** 			{
 509               		.loc 2 70 34 is_stmt 0 discriminator 2 view .LVU158
 510 00ca 00C0      		rjmp .L18
 511               	.LBE33:
 512               		.cfi_endproc
 513               	.LFE36:
 515               		.text
 516               	.global	__vector_13
 518               	__vector_13:
 519               	.LFB37:
  90:main.c        **** 		}
  91:main.c        **** 	}
  92:main.c        **** 
  93:main.c        **** 	return 0;
  94:main.c        **** }
  95:main.c        **** 
  96:main.c        **** ISR(TIMER0_COMPA_vect)
  97:main.c        **** {
 520               		.loc 2 97 1 is_stmt 1 view -0
 521               		.cfi_startproc
 522 0064 1F92      		push r1
 523               		.cfi_def_cfa_offset 3
 524               		.cfi_offset 1, -2
 525 0066 0F92      		push r0
 526               		.cfi_def_cfa_offset 4
 527               		.cfi_offset 0, -3
 528 0068 0FB6      		in r0,__SREG__
 529 006a 0F92      		push r0
 530 006c 1124      		clr __zero_reg__
 531 006e CF92      		push r12
 532               		.cfi_def_cfa_offset 5
 533               		.cfi_offset 12, -4
 534 0070 DF92      		push r13
 535               		.cfi_def_cfa_offset 6
 536               		.cfi_offset 13, -5
 537 0072 EF92      		push r14
 538               		.cfi_def_cfa_offset 7
 539               		.cfi_offset 14, -6
 540 0074 FF92      		push r15
 541               		.cfi_def_cfa_offset 8
 542               		.cfi_offset 15, -7
 543 0076 0F93      		push r16
 544               		.cfi_def_cfa_offset 9
 545               		.cfi_offset 16, -8
 546 0078 1F93      		push r17
 547               		.cfi_def_cfa_offset 10
 548               		.cfi_offset 17, -9
 549 007a 2F93      		push r18
 550               		.cfi_def_cfa_offset 11
 551               		.cfi_offset 18, -10
 552 007c 3F93      		push r19
 553               		.cfi_def_cfa_offset 12
 554               		.cfi_offset 19, -11
 555 007e 4F93      		push r20
 556               		.cfi_def_cfa_offset 13
 557               		.cfi_offset 20, -12
 558 0080 5F93      		push r21
 559               		.cfi_def_cfa_offset 14
 560               		.cfi_offset 21, -13
 561 0082 6F93      		push r22
 562               		.cfi_def_cfa_offset 15
 563               		.cfi_offset 22, -14
 564 0084 7F93      		push r23
 565               		.cfi_def_cfa_offset 16
 566               		.cfi_offset 23, -15
 567 0086 8F93      		push r24
 568               		.cfi_def_cfa_offset 17
 569               		.cfi_offset 24, -16
 570 0088 9F93      		push r25
 571               		.cfi_def_cfa_offset 18
 572               		.cfi_offset 25, -17
 573 008a AF93      		push r26
 574               		.cfi_def_cfa_offset 19
 575               		.cfi_offset 26, -18
 576 008c BF93      		push r27
 577               		.cfi_def_cfa_offset 20
 578               		.cfi_offset 27, -19
 579 008e EF93      		push r30
 580               		.cfi_def_cfa_offset 21
 581               		.cfi_offset 30, -20
 582 0090 FF93      		push r31
 583               		.cfi_def_cfa_offset 22
 584               		.cfi_offset 31, -21
 585 0092 CF93      		push r28
 586               		.cfi_def_cfa_offset 23
 587               		.cfi_offset 28, -22
 588 0094 DF93      		push r29
 589               		.cfi_def_cfa_offset 24
 590               		.cfi_offset 29, -23
 591 0096 CDB7      		in r28,__SP_L__
 592 0098 DD27      		clr r29
 593               		.cfi_def_cfa_register 28
 594 009a C550      		subi r28,lo8(-(-5))
 595               		.cfi_def_cfa_offset 29
 596 009c CDBF      		out __SP_L__,r28
 597               	/* prologue: Signal */
 598               	/* frame size = 5 */
 599               	/* stack size = 28 */
 600               	.L__stack_usage = 28
  98:main.c        **** 	timer_update();
 601               		.loc 2 98 2 view .LVU160
 602               	.LBB95:
 603               	.LBI95:
  19:timer.c       **** }
  20:timer.c       **** 
  21:timer.c       **** static void timer_update(void)
 604               		.loc 5 21 13 view .LVU161
 605               	.LBB96:
  22:timer.c       **** {
  23:timer.c       **** 	if(++_subticks == 64)
 606               		.loc 5 23 2 view .LVU162
 607               		.loc 5 23 5 is_stmt 0 view .LVU163
 608 009e 8091 0000 		lds r24,_subticks
 609 00a2 91E0      		ldi r25,lo8(1)
 610 00a4 980F      		add r25,r24
 611               		.loc 5 23 4 view .LVU164
 612 00a6 8F33      		cpi r24,lo8(63)
 613 00a8 01F4      		brne .+2
 614 00aa 00C0      		rjmp .L28
 615 00ac 9093 0000 		sts _subticks,r25
 616               	.L29:
 617               	.LBE96:
 618               	.LBE95:
  99:main.c        **** 	piezo_update();
 619               		.loc 2 99 2 is_stmt 1 view .LVU165
 620               	.LBB160:
 621               	.LBI160:
 622               		.file 6 "piezo.c"
   1:piezo.c       **** static uint8_t _beep;
   2:piezo.c       **** 
   3:piezo.c       **** static void piezo_update(void)
 623               		.loc 6 3 13 view .LVU166
 624               	.LBB161:
   4:piezo.c       **** {
   5:piezo.c       **** 	if(_beep)
 625               		.loc 6 5 2 view .LVU167
 626               		.loc 6 5 4 is_stmt 0 view .LVU168
 627 00b0 8091 0000 		lds r24,_beep
 628 00b4 8823      		tst r24
 629 00b6 01F0      		breq .L76
 630               	.LBB162:
   6:piezo.c       **** 	{
   7:piezo.c       **** 		uint8_t l = (_subticks >> 3) & 1;
 631               		.loc 6 7 3 is_stmt 1 view .LVU169
 632               	.LVL45:
   8:piezo.c       **** 		if(l)
 633               		.loc 6 8 3 view .LVU170
   7:piezo.c       **** 		if(l)
 634               		.loc 6 7 32 is_stmt 0 view .LVU171
 635 00b8 8091 0000 		lds r24,_subticks
 636               		.loc 6 8 5 view .LVU172
 637 00bc 83FF      		sbrs r24,3
 638 00be 00C0      		rjmp .L77
   9:piezo.c       **** 		{
  10:piezo.c       **** 			PORTD |= (1 << 4);
 639               		.loc 6 10 4 is_stmt 1 view .LVU173
 640               		.loc 6 10 10 is_stmt 0 view .LVU174
 641 00c0 949A      		sbi 0x12,4
 642               	.LVL46:
 643               	.L76:
 644               		.loc 6 10 10 view .LVU175
 645               	.LBE162:
 646               	.LBE161:
 647               	.LBE160:
 100:main.c        **** 	led_update();
 648               		.loc 2 100 2 is_stmt 1 view .LVU176
 649               	.LBB165:
 650               	.LBI165:
  34:led.c         **** 
  35:led.c         **** static void _led_set(uint8_t line)
  36:led.c         **** {
  37:led.c         **** 	uint8_t j = 0;
  38:led.c         **** 
  39:led.c         **** 	/* Disable all lines */
  40:led.c         **** 	PORTB &= ~((1 << 7) |
  41:led.c         **** 			(1 << 6) |
  42:led.c         **** 			(1 << 5) |
  43:led.c         **** 			(1 << 4) |
  44:led.c         **** 			(1 << 3));
  45:led.c         **** 
  46:led.c         **** 	/* Set Current Line */
  47:led.c         **** 	PORTB |= (1 << (line + 3));
  48:led.c         **** 
  49:led.c         **** 	/* LEDs On/Off */
  50:led.c         **** 	PORTB |= (1 << 2) |
  51:led.c         **** 			(1 << 1) |
  52:led.c         **** 			(1 << 0);
  53:led.c         **** 
  54:led.c         **** 	PORTD |= (1 << 6) |
  55:led.c         **** 			(1 << 5);
  56:led.c         **** 
  57:led.c         **** 	if(_display[line] & (1 << j))
  58:led.c         **** 	{
  59:led.c         **** 		PORTB &= ~(1 << 2);
  60:led.c         **** 	}
  61:led.c         **** 
  62:led.c         **** 	++j;
  63:led.c         **** 	if(_display[line] & (1 << j))
  64:led.c         **** 	{
  65:led.c         **** 		PORTB &= ~(1 << 1);
  66:led.c         **** 	}
  67:led.c         **** 
  68:led.c         **** 	++j;
  69:led.c         **** 	if(_display[line] & (1 << j))
  70:led.c         **** 	{
  71:led.c         **** 		PORTB &= ~(1 << 0);
  72:led.c         **** 	}
  73:led.c         **** 
  74:led.c         **** 	++j;
  75:led.c         **** 	if(_display[line] & (1 << j))
  76:led.c         **** 	{
  77:led.c         **** 		PORTD &= ~(1 << 6);
  78:led.c         **** 	}
  79:led.c         **** 
  80:led.c         **** 	++j;
  81:led.c         **** 	if(_display[line] & (1 << j))
  82:led.c         **** 	{
  83:led.c         **** 		PORTD &= ~(1 << 5);
  84:led.c         **** 	}
  85:led.c         **** }
  86:led.c         **** 
  87:led.c         **** static void _led_clear_bright(void)
  88:led.c         **** {
  89:led.c         **** 	PORTB |= (1 << 2);
  90:led.c         **** 	PORTB |= (1 << 0);
  91:led.c         **** 	PORTD |= (1 << 5);
  92:led.c         **** }
  93:led.c         **** 
  94:led.c         **** static void led_update(void)
 651               		.loc 1 94 13 view .LVU177
 652               	.LBB166:
  95:led.c         **** {
  96:led.c         **** 	static uint8_t sd, i;
 653               		.loc 1 96 2 view .LVU178
  97:led.c         **** 
  98:led.c         **** 	if(sd == 0)
 654               		.loc 1 98 2 view .LVU179
 655               		.loc 1 98 8 is_stmt 0 view .LVU180
 656 00c2 8091 0000 		lds r24,sd.1
 657               		.loc 1 98 4 view .LVU181
 658 00c6 8111      		cpse r24,__zero_reg__
 659 00c8 00C0      		rjmp .L78
  99:led.c         **** 	{
 100:led.c         **** 		_led_set(i);
 660               		.loc 1 100 3 is_stmt 1 view .LVU182
 661 00ca E091 0000 		lds r30,i.0
 662               	.LVL47:
 663               	.LBB167:
 664               	.LBI167:
  35:led.c         **** {
 665               		.loc 1 35 13 view .LVU183
 666               	.LBB168:
  37:led.c         **** 
 667               		.loc 1 37 2 view .LVU184
  40:led.c         **** 			(1 << 6) |
 668               		.loc 1 40 2 view .LVU185
  40:led.c         **** 			(1 << 6) |
 669               		.loc 1 40 8 is_stmt 0 view .LVU186
 670 00ce 88B3      		in r24,0x18
 671 00d0 8770      		andi r24,lo8(7)
 672 00d2 88BB      		out 0x18,r24
  47:led.c         **** 
 673               		.loc 1 47 2 is_stmt 1 view .LVU187
 674 00d4 88B3      		in r24,0x18
  47:led.c         **** 
 675               		.loc 1 47 23 is_stmt 0 view .LVU188
 676 00d6 F0E0      		ldi r31,0
 677 00d8 AF01      		movw r20,r30
 678 00da 4D5F      		subi r20,-3
 679 00dc 5F4F      		sbci r21,-1
  47:led.c         **** 
 680               		.loc 1 47 14 view .LVU189
 681 00de 21E0      		ldi r18,lo8(1)
 682 00e0 30E0      		ldi r19,0
 683 00e2 00C0      		rjmp 2f
 684               		1:
 685 00e4 220F      		lsl r18
 686               		2:
 687 00e6 4A95      		dec r20
 688 00e8 02F4      		brpl 1b
  47:led.c         **** 
 689               		.loc 1 47 8 view .LVU190
 690 00ea 822B      		or r24,r18
 691 00ec 88BB      		out 0x18,r24
  50:led.c         **** 			(1 << 1) |
 692               		.loc 1 50 2 is_stmt 1 view .LVU191
 693 00ee 88B3      		in r24,0x18
  50:led.c         **** 			(1 << 1) |
 694               		.loc 1 50 8 is_stmt 0 view .LVU192
 695 00f0 8760      		ori r24,lo8(7)
 696 00f2 88BB      		out 0x18,r24
  54:led.c         **** 			(1 << 5);
 697               		.loc 1 54 2 is_stmt 1 view .LVU193
 698 00f4 82B3      		in r24,0x12
  54:led.c         **** 			(1 << 5);
 699               		.loc 1 54 8 is_stmt 0 view .LVU194
 700 00f6 8066      		ori r24,lo8(96)
 701 00f8 82BB      		out 0x12,r24
  57:led.c         **** 	{
 702               		.loc 1 57 2 is_stmt 1 view .LVU195
  57:led.c         **** 	{
 703               		.loc 1 57 13 is_stmt 0 view .LVU196
 704 00fa E050      		subi r30,lo8(-(_display))
 705 00fc F040      		sbci r31,hi8(-(_display))
 706               	.LVL48:
  57:led.c         **** 	{
 707               		.loc 1 57 4 view .LVU197
 708 00fe 8081      		ld r24,Z
 709 0100 80FD      		sbrc r24,0
  59:led.c         **** 	}
 710               		.loc 1 59 3 is_stmt 1 view .LVU198
  59:led.c         **** 	}
 711               		.loc 1 59 9 is_stmt 0 view .LVU199
 712 0102 C298      		cbi 0x18,2
 713               	.L79:
  62:led.c         **** 	if(_display[line] & (1 << j))
 714               		.loc 1 62 2 is_stmt 1 view .LVU200
 715               	.LVL49:
  63:led.c         **** 	{
 716               		.loc 1 63 2 view .LVU201
  63:led.c         **** 	{
 717               		.loc 1 63 13 is_stmt 0 view .LVU202
 718 0104 8081      		ld r24,Z
  63:led.c         **** 	{
 719               		.loc 1 63 4 view .LVU203
 720 0106 81FD      		sbrc r24,1
  65:led.c         **** 	}
 721               		.loc 1 65 3 is_stmt 1 view .LVU204
  65:led.c         **** 	}
 722               		.loc 1 65 9 is_stmt 0 view .LVU205
 723 0108 C198      		cbi 0x18,1
 724               	.L80:
  68:led.c         **** 	if(_display[line] & (1 << j))
 725               		.loc 1 68 2 is_stmt 1 view .LVU206
 726               	.LVL50:
  69:led.c         **** 	{
 727               		.loc 1 69 2 view .LVU207
  69:led.c         **** 	{
 728               		.loc 1 69 13 is_stmt 0 view .LVU208
 729 010a 8081      		ld r24,Z
  69:led.c         **** 	{
 730               		.loc 1 69 4 view .LVU209
 731 010c 82FD      		sbrc r24,2
  71:led.c         **** 	}
 732               		.loc 1 71 3 is_stmt 1 view .LVU210
  71:led.c         **** 	}
 733               		.loc 1 71 9 is_stmt 0 view .LVU211
 734 010e C098      		cbi 0x18,0
 735               	.L81:
  74:led.c         **** 	if(_display[line] & (1 << j))
 736               		.loc 1 74 2 is_stmt 1 view .LVU212
 737               	.LVL51:
  75:led.c         **** 	{
 738               		.loc 1 75 2 view .LVU213
  75:led.c         **** 	{
 739               		.loc 1 75 13 is_stmt 0 view .LVU214
 740 0110 8081      		ld r24,Z
  75:led.c         **** 	{
 741               		.loc 1 75 4 view .LVU215
 742 0112 83FD      		sbrc r24,3
  77:led.c         **** 	}
 743               		.loc 1 77 3 is_stmt 1 view .LVU216
  77:led.c         **** 	}
 744               		.loc 1 77 9 is_stmt 0 view .LVU217
 745 0114 9698      		cbi 0x12,6
 746               	.L82:
  80:led.c         **** 	if(_display[line] & (1 << j))
 747               		.loc 1 80 2 is_stmt 1 view .LVU218
 748               	.LVL52:
  81:led.c         **** 	{
 749               		.loc 1 81 2 view .LVU219
  81:led.c         **** 	{
 750               		.loc 1 81 13 is_stmt 0 view .LVU220
 751 0116 8081      		ld r24,Z
  81:led.c         **** 	{
 752               		.loc 1 81 4 view .LVU221
 753 0118 84FD      		sbrc r24,4
  83:led.c         **** 	}
 754               		.loc 1 83 3 is_stmt 1 view .LVU222
  83:led.c         **** 	}
 755               		.loc 1 83 9 is_stmt 0 view .LVU223
 756 011a 9598      		cbi 0x12,5
 757               	.LVL53:
 758               	.L84:
  83:led.c         **** 	}
 759               		.loc 1 83 9 view .LVU224
 760               	.LBE168:
 761               	.LBE167:
 101:led.c         **** 	}
 102:led.c         **** 	else if(sd == 1)
 103:led.c         **** 	{
 104:led.c         **** 		/* Compensate for brighter leds */
 105:led.c         **** 		if(i == 0 || i == 2 || i == 4)
 106:led.c         **** 		{
 107:led.c         **** 			_led_clear_bright();
 108:led.c         **** 		}
 109:led.c         **** 	}
 110:led.c         **** 
 111:led.c         **** 	if(++sd == BRIGHTNESS_FACTOR)
 762               		.loc 1 111 2 is_stmt 1 view .LVU225
 763               		.loc 1 111 5 is_stmt 0 view .LVU226
 764 011c 8091 0000 		lds r24,sd.1
 765 0120 91E0      		ldi r25,lo8(1)
 766 0122 980F      		add r25,r24
 767               		.loc 1 111 4 view .LVU227
 768 0124 8930      		cpi r24,lo8(9)
 769 0126 01F4      		brne .+2
 770 0128 00C0      		rjmp .L87
 771 012a 9093 0000 		sts sd.1,r25
 772               	.L27:
 773               	/* epilogue start */
 774               	.LBE166:
 775               	.LBE165:
 101:main.c        **** }
 776               		.loc 2 101 1 view .LVU228
 777 012e CB5F      		subi r28,lo8(-(5))
 778 0130 CDBF      		out __SP_L__,r28
 779 0132 DF91      		pop r29
 780 0134 CF91      		pop r28
 781 0136 FF91      		pop r31
 782 0138 EF91      		pop r30
 783 013a BF91      		pop r27
 784 013c AF91      		pop r26
 785 013e 9F91      		pop r25
 786 0140 8F91      		pop r24
 787 0142 7F91      		pop r23
 788 0144 6F91      		pop r22
 789 0146 5F91      		pop r21
 790 0148 4F91      		pop r20
 791 014a 3F91      		pop r19
 792 014c 2F91      		pop r18
 793 014e 1F91      		pop r17
 794 0150 0F91      		pop r16
 795 0152 FF90      		pop r15
 796 0154 EF90      		pop r14
 797 0156 DF90      		pop r13
 798 0158 CF90      		pop r12
 799 015a 0F90      		pop r0
 800 015c 0FBE      		out __SREG__,r0
 801 015e 0F90      		pop r0
 802 0160 1F90      		pop r1
 803 0162 1895      		reti
 804               	.L28:
 805               	.LBB172:
 806               	.LBB159:
  24:timer.c       **** 	{
  25:timer.c       **** 		_subticks = 0;
 807               		.loc 5 25 3 is_stmt 1 view .LVU229
 808               		.loc 5 25 13 is_stmt 0 view .LVU230
 809 0164 1092 0000 		sts _subticks,__zero_reg__
  26:timer.c       **** 		tick();
 810               		.loc 5 26 3 is_stmt 1 view .LVU231
 811               	.LBB97:
 812               	.LBI97:
 102:main.c        **** 
 103:main.c        **** static void tick(void)
 813               		.loc 2 103 13 view .LVU232
 814               	.LBB98:
 104:main.c        **** {
 105:main.c        **** 	if(_mode == MODE_CLOCK)
 815               		.loc 2 105 2 view .LVU233
 816               		.loc 2 105 11 is_stmt 0 view .LVU234
 817 0168 8091 0000 		lds r24,_mode
 818               		.loc 2 105 4 view .LVU235
 819 016c 8230      		cpi r24,lo8(2)
 820 016e 01F0      		breq .+2
 821 0170 00C0      		rjmp .L30
 106:main.c        **** 	{
 107:main.c        **** 		scroll_update();
 822               		.loc 2 107 3 is_stmt 1 view .LVU236
 823               	.LBB99:
 824               	.LBI99:
 825               		.file 7 "clock.c"
   1:clock.c       **** static uint8_t _cur, _buf[6];
   2:clock.c       **** 
   3:clock.c       **** static void scroll_update(void)
 826               		.loc 7 3 13 view .LVU237
 827               	.LBB100:
   4:clock.c       **** {
   5:clock.c       **** 	static uint8_t _cnt;
 828               		.loc 7 5 2 view .LVU238
   6:clock.c       **** 	if(++_cnt < 40)
 829               		.loc 7 6 2 view .LVU239
 830               		.loc 7 6 5 is_stmt 0 view .LVU240
 831 0172 8091 0000 		lds r24,_cnt.7
 832 0176 8F5F      		subi r24,lo8(-(1))
 833               		.loc 7 6 4 view .LVU241
 834 0178 8832      		cpi r24,lo8(40)
 835 017a 00F0      		brlo .+2
 836 017c 00C0      		rjmp .L31
 837 017e 8093 0000 		sts _cnt.7,r24
 838               	.L32:
 839               	.LBE100:
 840               	.LBE99:
 108:main.c        **** 	}
 109:main.c        **** 	else if(_mode == MODE_TEXT)
 110:main.c        **** 	{
 111:main.c        **** 		text_update();
 112:main.c        **** 	}
 113:main.c        **** 
 114:main.c        **** 	button_update();
 841               		.loc 2 114 2 is_stmt 1 view .LVU242
 842               	.LBB111:
 843               	.LBI111:
  11:button.c      **** }
  12:button.c      **** 
  13:button.c      **** static void button_update(void)
 844               		.loc 4 13 13 view .LVU243
 845               	.LBB112:
  14:button.c      **** {
  15:button.c      **** 	uint8_t i, start = (_mode == MODE_UART) ? 2 : 0;
 846               		.loc 4 15 2 view .LVU244
 847               		.loc 4 15 28 is_stmt 0 view .LVU245
 848 0182 8091 0000 		lds r24,_mode
 849               	.LVL54:
  16:button.c      **** 	for(i = start; i < BUTTON_COUNT; ++i)
 850               		.loc 4 16 19 is_stmt 1 view .LVU246
  15:button.c      **** 	for(i = start; i < BUTTON_COUNT; ++i)
 851               		.loc 4 15 13 is_stmt 0 view .LVU247
 852 0186 01E0      		ldi r16,lo8(1)
 853 0188 8130      		cpi r24,lo8(1)
 854 018a 01F0      		breq .L51
 855 018c 00E0      		ldi r16,0
 856               	.L51:
 857 018e 000F      		lsl r16
 858 0190 10E0      		ldi r17,0
 859 0192 C801      		movw r24,r16
 860               	.LVL55:
  15:button.c      **** 	for(i = start; i < BUTTON_COUNT; ++i)
 861               		.loc 4 15 13 view .LVU248
 862 0194 8050      		subi r24,lo8(-(button_ticks))
 863 0196 9040      		sbci r25,hi8(-(button_ticks))
 864 0198 7C01      		movw r14,r24
 865               	.LVL56:
 866               	.L61:
  17:button.c      **** 	{
  18:button.c      **** 		if(!(PIND & (1 << i)))
 867               		.loc 4 18 3 is_stmt 1 view .LVU249
 868               		.loc 4 18 8 is_stmt 0 view .LVU250
 869 019a 80B3      		in r24,0x10
 870 019c 90E0      		ldi r25,0
 871               		.loc 4 18 6 view .LVU251
 872 019e 002E      		mov r0,r16
 873 01a0 00C0      		rjmp 2f
 874               		1:
 875 01a2 9595      		asr r25
 876 01a4 8795      		ror r24
 877               		2:
 878 01a6 0A94      		dec r0
 879 01a8 02F4      		brpl 1b
  19:button.c      **** 		{
  20:button.c      **** 			if(button_ticks[i] < BUTTON_PRESS_TICKS)
 880               		.loc 4 20 19 view .LVU252
 881 01aa F701      		movw r30,r14
  18:button.c      **** 		{
 882               		.loc 4 18 5 view .LVU253
 883 01ac 80FD      		sbrc r24,0
 884 01ae 00C0      		rjmp .L52
 885               		.loc 4 20 4 is_stmt 1 view .LVU254
 886               		.loc 4 20 19 is_stmt 0 view .LVU255
 887 01b0 8081      		ld r24,Z
 888               		.loc 4 20 6 view .LVU256
 889 01b2 8C30      		cpi r24,lo8(12)
 890 01b4 00F0      		brlo .+2
 891 01b6 00C0      		rjmp .L53
  21:button.c      **** 			{
  22:button.c      **** 				++button_ticks[i];
 892               		.loc 4 22 5 is_stmt 1 view .LVU257
 893 01b8 8F5F      		subi r24,lo8(-(1))
 894 01ba 8083      		st Z,r24
 895               	.L54:
  16:button.c      **** 	{
 896               		.loc 4 16 35 view .LVU258
 897               	.LVL57:
  16:button.c      **** 	{
 898               		.loc 4 16 19 view .LVU259
 899 01bc 0F5F      		subi r16,-1
 900 01be 1F4F      		sbci r17,-1
 901               	.LVL58:
  16:button.c      **** 	{
 902               		.loc 4 16 19 is_stmt 0 view .LVU260
 903 01c0 FFEF      		ldi r31,-1
 904 01c2 EF1A      		sub r14,r31
 905 01c4 FF0A      		sbc r15,r31
 906 01c6 0430      		cpi r16,lo8(4)
 907 01c8 01F4      		brne .L61
 908               	.LVL59:
  16:button.c      **** 	{
 909               		.loc 4 16 19 view .LVU261
 910               	.LBE112:
 911               	.LBE111:
 115:main.c        **** 	alarm_update();
 912               		.loc 2 115 2 is_stmt 1 view .LVU262
 913               	.LBB135:
 914               	.LBI135:
 915               		.file 8 "alarm.c"
   1:alarm.c       **** typedef struct ALARM
   2:alarm.c       **** {
   3:alarm.c       **** 	uint8_t Minutes, Hours;
   4:alarm.c       **** 	uint8_t Icon[5];
   5:alarm.c       **** } Alarm;
   6:alarm.c       **** 
   7:alarm.c       **** static volatile uint8_t _alarms_count;
   8:alarm.c       **** static volatile Alarm _alarms[4], *_alarm_cur;
   9:alarm.c       **** 
  10:alarm.c       **** #define DELAY_SHORT   15
  11:alarm.c       **** #define DELAY_LONG   224
  12:alarm.c       **** 
  13:alarm.c       **** static void alarm_update(void)
 916               		.loc 8 13 13 view .LVU263
 917               	.LBB136:
  14:alarm.c       **** {
  15:alarm.c       **** 	if(_mode == MODE_ALARM)
 918               		.loc 8 15 2 view .LVU264
 919               		.loc 8 15 11 is_stmt 0 view .LVU265
 920 01ca 8091 0000 		lds r24,_mode
  16:alarm.c       **** 	{
  17:alarm.c       **** 		static uint8_t delay = DELAY_SHORT, cnt = 0;
  18:alarm.c       **** 		static uint8_t i;
  19:alarm.c       **** 
  20:alarm.c       **** 		if(++cnt == delay)
  21:alarm.c       **** 		{
  22:alarm.c       **** 			cnt = 0;
  23:alarm.c       **** 
  24:alarm.c       **** 			if((i & 1) == 1)
  25:alarm.c       **** 			{
  26:alarm.c       **** 				_beep = 1;
  27:alarm.c       **** 				display_set(_alarm_cur->Icon);
  28:alarm.c       **** 			}
  29:alarm.c       **** 			else
  30:alarm.c       **** 			{
  31:alarm.c       **** 				_beep = 0;
  32:alarm.c       **** 				display_set_P(display_clear);
  33:alarm.c       **** 			}
  34:alarm.c       **** 
  35:alarm.c       **** 			if(i == 7)
  36:alarm.c       **** 			{
  37:alarm.c       **** 				delay = DELAY_LONG;
  38:alarm.c       **** 				_beep = 0;
  39:alarm.c       **** 			}
  40:alarm.c       **** 
  41:alarm.c       **** 			if(++i == 9)
  42:alarm.c       **** 			{
  43:alarm.c       **** 				delay = DELAY_SHORT;
  44:alarm.c       **** 				i = 0;
  45:alarm.c       **** 			}
  46:alarm.c       **** 		}
  47:alarm.c       **** 	}
  48:alarm.c       **** 	else if(_seconds == 0 && _ticks == 0)
 921               		.loc 8 48 34 view .LVU266
 922 01ce 0091 0000 		lds r16,_ticks
  15:alarm.c       **** 	{
 923               		.loc 8 15 4 view .LVU267
 924 01d2 8330      		cpi r24,lo8(3)
 925 01d4 01F0      		breq .+2
 926 01d6 00C0      		rjmp .L62
 927               	.LBB137:
  17:alarm.c       **** 		static uint8_t i;
 928               		.loc 8 17 3 is_stmt 1 view .LVU268
  18:alarm.c       **** 
 929               		.loc 8 18 3 view .LVU269
  20:alarm.c       **** 		{
 930               		.loc 8 20 3 view .LVU270
  20:alarm.c       **** 		{
 931               		.loc 8 20 6 is_stmt 0 view .LVU271
 932 01d8 8091 0000 		lds r24,cnt.4
 933 01dc 8F5F      		subi r24,lo8(-(1))
  20:alarm.c       **** 		{
 934               		.loc 8 20 5 view .LVU272
 935 01de 8093 0000 		sts cnt.4,r24
 936 01e2 9091 0000 		lds r25,delay.3
 937 01e6 8913      		cpse r24,r25
 938 01e8 00C0      		rjmp .L64
  22:alarm.c       **** 
 939               		.loc 8 22 4 is_stmt 1 view .LVU273
  22:alarm.c       **** 
 940               		.loc 8 22 8 is_stmt 0 view .LVU274
 941 01ea 1092 0000 		sts cnt.4,__zero_reg__
  24:alarm.c       **** 			{
 942               		.loc 8 24 4 is_stmt 1 view .LVU275
  24:alarm.c       **** 			{
 943               		.loc 8 24 10 is_stmt 0 view .LVU276
 944 01ee 1091 0000 		lds r17,i.2
  24:alarm.c       **** 			{
 945               		.loc 8 24 6 view .LVU277
 946 01f2 10FF      		sbrs r17,0
 947 01f4 00C0      		rjmp .L65
  26:alarm.c       **** 				display_set(_alarm_cur->Icon);
 948               		.loc 8 26 5 is_stmt 1 view .LVU278
  26:alarm.c       **** 				display_set(_alarm_cur->Icon);
 949               		.loc 8 26 11 is_stmt 0 view .LVU279
 950 01f6 81E0      		ldi r24,lo8(1)
 951 01f8 8093 0000 		sts _beep,r24
  27:alarm.c       **** 			}
 952               		.loc 8 27 5 is_stmt 1 view .LVU280
  27:alarm.c       **** 			}
 953               		.loc 8 27 27 is_stmt 0 view .LVU281
 954 01fc E091 0000 		lds r30,_alarm_cur
 955 0200 F091 0000 		lds r31,_alarm_cur+1
 956               	.LVL60:
 957               	.LBB138:
 958               	.LBI138:
  17:led.c         **** {
 959               		.loc 1 17 13 is_stmt 1 view .LVU282
 960               	.LBB139:
  19:led.c         **** 	_display[1] = value[1];
 961               		.loc 1 19 2 view .LVU283
  19:led.c         **** 	_display[1] = value[1];
 962               		.loc 1 19 14 is_stmt 0 view .LVU284
 963 0204 8281      		ldd r24,Z+2
 964 0206 8093 0000 		sts _display,r24
  20:led.c         **** 	_display[2] = value[2];
 965               		.loc 1 20 2 is_stmt 1 view .LVU285
  20:led.c         **** 	_display[2] = value[2];
 966               		.loc 1 20 14 is_stmt 0 view .LVU286
 967 020a 8381      		ldd r24,Z+3
 968 020c 8093 0000 		sts _display+1,r24
  21:led.c         **** 	_display[3] = value[3];
 969               		.loc 1 21 2 is_stmt 1 view .LVU287
  21:led.c         **** 	_display[3] = value[3];
 970               		.loc 1 21 14 is_stmt 0 view .LVU288
 971 0210 8481      		ldd r24,Z+4
 972 0212 8093 0000 		sts _display+2,r24
  22:led.c         **** 	_display[4] = value[4];
 973               		.loc 1 22 2 is_stmt 1 view .LVU289
  22:led.c         **** 	_display[4] = value[4];
 974               		.loc 1 22 14 is_stmt 0 view .LVU290
 975 0216 8581      		ldd r24,Z+5
 976 0218 8093 0000 		sts _display+3,r24
  23:led.c         **** }
 977               		.loc 1 23 2 is_stmt 1 view .LVU291
  23:led.c         **** }
 978               		.loc 1 23 14 is_stmt 0 view .LVU292
 979 021c 8681      		ldd r24,Z+6
 980 021e 8093 0000 		sts _display+4,r24
 981               	.LVL61:
 982               	.L66:
  23:led.c         **** }
 983               		.loc 1 23 14 view .LVU293
 984               	.LBE139:
 985               	.LBE138:
  35:alarm.c       **** 			{
 986               		.loc 8 35 4 is_stmt 1 view .LVU294
  35:alarm.c       **** 			{
 987               		.loc 8 35 6 is_stmt 0 view .LVU295
 988 0222 1730      		cpi r17,lo8(7)
 989 0224 01F0      		breq .+2
 990 0226 00C0      		rjmp .L67
  37:alarm.c       **** 				_beep = 0;
 991               		.loc 8 37 5 is_stmt 1 view .LVU296
  37:alarm.c       **** 				_beep = 0;
 992               		.loc 8 37 11 is_stmt 0 view .LVU297
 993 0228 80EE      		ldi r24,lo8(-32)
 994 022a 8093 0000 		sts delay.3,r24
  38:alarm.c       **** 			}
 995               		.loc 8 38 5 is_stmt 1 view .LVU298
  38:alarm.c       **** 			}
 996               		.loc 8 38 11 is_stmt 0 view .LVU299
 997 022e 1092 0000 		sts _beep,__zero_reg__
  41:alarm.c       **** 			{
 998               		.loc 8 41 4 is_stmt 1 view .LVU300
  41:alarm.c       **** 			{
 999               		.loc 8 41 6 is_stmt 0 view .LVU301
 1000 0232 88E0      		ldi r24,lo8(8)
 1001 0234 8093 0000 		sts i.2,r24
 1002               	.L64:
 1003               	.LBE137:
 1004               	.LBE136:
 1005               	.LBE135:
 1006               	.LBE98:
 1007               	.LBE97:
  27:timer.c       **** 		if(++_ticks == 128)
 1008               		.loc 5 27 3 is_stmt 1 view .LVU302
 1009               		.loc 5 27 6 is_stmt 0 view .LVU303
 1010 0238 81E0      		ldi r24,lo8(1)
 1011 023a 800F      		add r24,r16
 1012               		.loc 5 27 5 view .LVU304
 1013 023c 0F37      		cpi r16,lo8(127)
 1014 023e 01F0      		breq .+2
 1015 0240 00C0      		rjmp .L71
  28:timer.c       **** 		{
  29:timer.c       **** 			_ticks = 0;
 1016               		.loc 5 29 4 is_stmt 1 view .LVU305
 1017               		.loc 5 29 11 is_stmt 0 view .LVU306
 1018 0242 1092 0000 		sts _ticks,__zero_reg__
  30:timer.c       **** 			if(++_seconds == 60)
 1019               		.loc 5 30 4 is_stmt 1 view .LVU307
 1020               		.loc 5 30 7 is_stmt 0 view .LVU308
 1021 0246 8091 0000 		lds r24,_seconds
 1022 024a 8F5F      		subi r24,lo8(-(1))
 1023               		.loc 5 30 6 view .LVU309
 1024 024c 8093 0000 		sts _seconds,r24
 1025 0250 8C33      		cpi r24,lo8(60)
 1026 0252 01F0      		breq .+2
 1027 0254 00C0      		rjmp .L29
  31:timer.c       **** 			{
  32:timer.c       **** 				_seconds = 0;
 1028               		.loc 5 32 5 is_stmt 1 view .LVU310
 1029               		.loc 5 32 14 is_stmt 0 view .LVU311
 1030 0256 1092 0000 		sts _seconds,__zero_reg__
  33:timer.c       **** 				if(++_minutes == 60)
 1031               		.loc 5 33 5 is_stmt 1 view .LVU312
 1032               		.loc 5 33 8 is_stmt 0 view .LVU313
 1033 025a 8091 0000 		lds r24,_minutes
 1034 025e 8F5F      		subi r24,lo8(-(1))
 1035               		.loc 5 33 7 view .LVU314
 1036 0260 8093 0000 		sts _minutes,r24
 1037 0264 8C33      		cpi r24,lo8(60)
 1038 0266 01F0      		breq .+2
 1039 0268 00C0      		rjmp .L29
  34:timer.c       **** 				{
  35:timer.c       **** 					_minutes = 0;
 1040               		.loc 5 35 6 is_stmt 1 view .LVU315
 1041               		.loc 5 35 15 is_stmt 0 view .LVU316
 1042 026a 1092 0000 		sts _minutes,__zero_reg__
  36:timer.c       **** 					if(++_hours == 24)
 1043               		.loc 5 36 6 is_stmt 1 view .LVU317
 1044               		.loc 5 36 9 is_stmt 0 view .LVU318
 1045 026e 8091 0000 		lds r24,_hours
 1046 0272 8F5F      		subi r24,lo8(-(1))
 1047               		.loc 5 36 8 view .LVU319
 1048 0274 8093 0000 		sts _hours,r24
 1049 0278 8831      		cpi r24,lo8(24)
 1050 027a 01F0      		breq .+2
 1051 027c 00C0      		rjmp .L29
  37:timer.c       **** 					{
  38:timer.c       **** 						_hours = 0;
 1052               		.loc 5 38 7 is_stmt 1 view .LVU320
 1053               		.loc 5 38 14 is_stmt 0 view .LVU321
 1054 027e 1092 0000 		sts _hours,__zero_reg__
 1055 0282 00C0      		rjmp .L29
 1056               	.L31:
 1057               	.LBB157:
 1058               	.LBB155:
 1059               	.LBB145:
 1060               	.LBB110:
   7:clock.c       **** 	{
   8:clock.c       **** 		return;
   9:clock.c       **** 	}
  10:clock.c       **** 
  11:clock.c       **** 	_cnt = 0;
 1061               		.loc 7 11 2 is_stmt 1 view .LVU322
 1062               		.loc 7 11 7 is_stmt 0 view .LVU323
 1063 0284 1092 0000 		sts _cnt.7,__zero_reg__
  12:clock.c       **** 	if(_cur < 6)
 1064               		.loc 7 12 2 is_stmt 1 view .LVU324
 1065               		.loc 7 12 10 is_stmt 0 view .LVU325
 1066 0288 1091 0000 		lds r17,_cur
 1067               		.loc 7 12 4 view .LVU326
 1068 028c 1630      		cpi r17,lo8(6)
 1069 028e 00F0      		brlo .+2
 1070 0290 00C0      		rjmp .L33
 1071               	.LBB101:
  13:clock.c       **** 	{
  14:clock.c       **** 		uint8_t lines[5], i, o, w, v, j, s = 0;
 1072               		.loc 7 14 3 is_stmt 1 view .LVU327
 1073               	.LVL62:
  15:clock.c       **** 		v = _buf[_cur];
 1074               		.loc 7 15 3 view .LVU328
 1075               		.loc 7 15 11 is_stmt 0 view .LVU329
 1076 0292 E12F      		mov r30,r17
 1077 0294 F0E0      		ldi r31,0
 1078               		.loc 7 15 5 view .LVU330
 1079 0296 E050      		subi r30,lo8(-(_buf))
 1080 0298 F040      		sbci r31,hi8(-(_buf))
 1081 029a 8081      		ld r24,Z
 1082               	.LVL63:
  16:clock.c       **** 		o = pgm_read_byte(&_map[v]);
 1083               		.loc 7 16 3 is_stmt 1 view .LVU331
 1084               	.LBB102:
 1085               		.loc 7 16 7 view .LVU332
 1086               		.loc 7 16 7 view .LVU333
 1087               		.loc 7 16 7 view .LVU334
 1088 029c 90E0      		ldi r25,0
 1089 029e FC01      		movw r30,r24
 1090 02a0 E050      		subi r30,lo8(-(_map))
 1091 02a2 F040      		sbci r31,hi8(-(_map))
 1092               	/* #APP */
 1093               	 ;  16 "clock.c" 1
 1094 02a4 2491      		lpm r18, Z
 1095               		
 1096               	 ;  0 "" 2
 1097               	.LVL64:
 1098               		.loc 7 16 7 view .LVU335
 1099               		.loc 7 16 7 is_stmt 0 view .LVU336
 1100               	/* #NOAPP */
 1101               	.LBE102:
  17:clock.c       **** 		w = pgm_read_byte(&_map[v + 1]) - o;
 1102               		.loc 7 17 3 is_stmt 1 view .LVU337
 1103               	.LBB103:
 1104               		.loc 7 17 7 view .LVU338
 1105               		.loc 7 17 7 view .LVU339
 1106               		.loc 7 17 7 view .LVU340
 1107 02a6 8050      		subi r24,lo8(-(_map+1))
 1108 02a8 9040      		sbci r25,hi8(-(_map+1))
 1109               	.LVL65:
 1110               		.loc 7 17 7 is_stmt 0 view .LVU341
 1111 02aa FC01      		movw r30,r24
 1112               	/* #APP */
 1113               	 ;  17 "clock.c" 1
 1114 02ac 8491      		lpm r24, Z
 1115               		
 1116               	 ;  0 "" 2
 1117               	.LVL66:
 1118               		.loc 7 17 7 is_stmt 1 view .LVU342
 1119               	/* #NOAPP */
 1120               	.LBE103:
 1121               		.loc 7 17 5 is_stmt 0 view .LVU343
 1122 02ae F82E      		mov r15,r24
 1123 02b0 F21A      		sub r15,r18
 1124               	.LVL67:
  18:clock.c       **** 		for(i = 0; i < 5; ++i)
 1125               		.loc 7 18 3 is_stmt 1 view .LVU344
 1126               		.loc 7 18 16 view .LVU345
  19:clock.c       **** 		{
  20:clock.c       **** 			lines[i] = 0;
 1127               		.loc 7 20 4 view .LVU346
 1128               		.loc 7 20 13 is_stmt 0 view .LVU347
 1129 02b2 1982      		std Y+1,__zero_reg__
  18:clock.c       **** 		for(i = 0; i < 5; ++i)
 1130               		.loc 7 18 21 is_stmt 1 view .LVU348
 1131               	.LVL68:
  18:clock.c       **** 		for(i = 0; i < 5; ++i)
 1132               		.loc 7 18 16 view .LVU349
 1133               		.loc 7 20 4 view .LVU350
 1134               		.loc 7 20 13 is_stmt 0 view .LVU351
 1135 02b4 1A82      		std Y+2,__zero_reg__
  18:clock.c       **** 		for(i = 0; i < 5; ++i)
 1136               		.loc 7 18 21 is_stmt 1 view .LVU352
 1137               	.LVL69:
  18:clock.c       **** 		for(i = 0; i < 5; ++i)
 1138               		.loc 7 18 16 view .LVU353
 1139               		.loc 7 20 4 view .LVU354
 1140               		.loc 7 20 13 is_stmt 0 view .LVU355
 1141 02b6 1B82      		std Y+3,__zero_reg__
  18:clock.c       **** 		for(i = 0; i < 5; ++i)
 1142               		.loc 7 18 21 is_stmt 1 view .LVU356
 1143               	.LVL70:
  18:clock.c       **** 		for(i = 0; i < 5; ++i)
 1144               		.loc 7 18 16 view .LVU357
 1145               		.loc 7 20 4 view .LVU358
 1146               		.loc 7 20 13 is_stmt 0 view .LVU359
 1147 02b8 1C82      		std Y+4,__zero_reg__
  18:clock.c       **** 		for(i = 0; i < 5; ++i)
 1148               		.loc 7 18 21 is_stmt 1 view .LVU360
 1149               	.LVL71:
  18:clock.c       **** 		for(i = 0; i < 5; ++i)
 1150               		.loc 7 18 16 view .LVU361
 1151               		.loc 7 20 4 view .LVU362
 1152               		.loc 7 20 13 is_stmt 0 view .LVU363
 1153 02ba 1D82      		std Y+5,__zero_reg__
  18:clock.c       **** 		for(i = 0; i < 5; ++i)
 1154               		.loc 7 18 21 is_stmt 1 view .LVU364
 1155               	.LVL72:
  18:clock.c       **** 		for(i = 0; i < 5; ++i)
 1156               		.loc 7 18 16 view .LVU365
  21:clock.c       **** 		}
  22:clock.c       **** 
  23:clock.c       **** 		if((_cur & 1) == 1)
 1157               		.loc 7 23 3 view .LVU366
 1158 02bc 912F      		mov r25,r17
 1159 02be 9170      		andi r25,lo8(1)
 1160               		.loc 7 23 5 is_stmt 0 view .LVU367
 1161 02c0 9923      		tst r25
 1162 02c2 01F0      		breq .L34
  24:clock.c       **** 		{
  25:clock.c       **** 			s = 5 - w;
 1163               		.loc 7 25 4 is_stmt 1 view .LVU368
 1164               		.loc 7 25 6 is_stmt 0 view .LVU369
 1165 02c4 95E0      		ldi r25,lo8(5)
 1166 02c6 920F      		add r25,r18
 1167 02c8 981B      		sub r25,r24
 1168               	.LVL73:
 1169               	.L34:
  26:clock.c       **** 		}
  27:clock.c       **** 
  28:clock.c       **** 		for(i = 0; i < w; ++i)
 1170               		.loc 7 28 3 is_stmt 1 view .LVU370
 1171               		.loc 7 28 3 is_stmt 0 view .LVU371
 1172 02ca E22F      		mov r30,r18
 1173 02cc F0E0      		ldi r31,0
 1174 02ce E050      		subi r30,lo8(-(_font))
 1175 02d0 F040      		sbci r31,hi8(-(_font))
 1176 02d2 292F      		mov r18,r25
 1177               	.LVL74:
 1178               		.loc 7 28 3 view .LVU372
 1179 02d4 30E0      		ldi r19,0
 1180               	.LBB104:
  29:clock.c       **** 		{
  30:clock.c       **** 			uint8_t r = pgm_read_byte(_font + o + i);
  31:clock.c       **** 			for(j = 0; j < 5; ++j)
  32:clock.c       **** 			{
  33:clock.c       **** 				if(r & (1 << j))
  34:clock.c       **** 				{
  35:clock.c       **** 					lines[4 - j] |= (1 << (s + i));
 1181               		.loc 7 35 25 view .LVU373
 1182 02d6 EE24      		clr r14
 1183 02d8 E394      		inc r14
 1184               	.LVL75:
 1185               	.L35:
 1186               		.loc 7 35 25 view .LVU374
 1187               	.LBE104:
  28:clock.c       **** 		{
 1188               		.loc 7 28 16 is_stmt 1 view .LVU375
 1189 02da 822F      		mov r24,r18
 1190 02dc 891B      		sub r24,r25
 1191 02de 8F15      		cp r24,r15
 1192 02e0 00F0      		brlo .L38
  36:clock.c       **** 				}
  37:clock.c       **** 			}
  38:clock.c       **** 		}
  39:clock.c       **** 
  40:clock.c       **** 		display_set(lines);
 1193               		.loc 7 40 3 view .LVU376
 1194               	.LVL76:
 1195               	.LBB106:
 1196               	.LBI106:
  17:led.c         **** {
 1197               		.loc 1 17 13 view .LVU377
 1198               	.LBB107:
  19:led.c         **** 	_display[1] = value[1];
 1199               		.loc 1 19 2 view .LVU378
  19:led.c         **** 	_display[1] = value[1];
 1200               		.loc 1 19 14 is_stmt 0 view .LVU379
 1201 02e2 8981      		ldd r24,Y+1
 1202 02e4 8093 0000 		sts _display,r24
  20:led.c         **** 	_display[2] = value[2];
 1203               		.loc 1 20 2 is_stmt 1 view .LVU380
  20:led.c         **** 	_display[2] = value[2];
 1204               		.loc 1 20 14 is_stmt 0 view .LVU381
 1205 02e8 8A81      		ldd r24,Y+2
 1206 02ea 8093 0000 		sts _display+1,r24
  21:led.c         **** 	_display[3] = value[3];
 1207               		.loc 1 21 2 is_stmt 1 view .LVU382
  21:led.c         **** 	_display[3] = value[3];
 1208               		.loc 1 21 14 is_stmt 0 view .LVU383
 1209 02ee 8B81      		ldd r24,Y+3
 1210 02f0 8093 0000 		sts _display+2,r24
  22:led.c         **** 	_display[4] = value[4];
 1211               		.loc 1 22 2 is_stmt 1 view .LVU384
  22:led.c         **** 	_display[4] = value[4];
 1212               		.loc 1 22 14 is_stmt 0 view .LVU385
 1213 02f4 8C81      		ldd r24,Y+4
 1214 02f6 8093 0000 		sts _display+3,r24
  23:led.c         **** }
 1215               		.loc 1 23 2 is_stmt 1 view .LVU386
  23:led.c         **** }
 1216               		.loc 1 23 14 is_stmt 0 view .LVU387
 1217 02fa 8D81      		ldd r24,Y+5
 1218 02fc 8093 0000 		sts _display+4,r24
 1219               	.LVL77:
 1220               	.L39:
  23:led.c         **** }
 1221               		.loc 1 23 14 view .LVU388
 1222               	.LBE107:
 1223               	.LBE106:
 1224               	.LBE101:
  41:clock.c       **** 	}
  42:clock.c       **** 	else
  43:clock.c       **** 	{
  44:clock.c       **** 		mode_idle();
  45:clock.c       **** 	}
  46:clock.c       **** 
  47:clock.c       **** 	++_cur;
 1225               		.loc 7 47 2 is_stmt 1 view .LVU389
 1226 0300 1F5F      		subi r17,lo8(-(1))
 1227 0302 1093 0000 		sts _cur,r17
 1228 0306 00C0      		rjmp .L32
 1229               	.LVL78:
 1230               	.L38:
 1231               	.LBB109:
 1232               	.LBB108:
  30:clock.c       **** 			for(j = 0; j < 5; ++j)
 1233               		.loc 7 30 4 view .LVU390
 1234               	.LBB105:
  30:clock.c       **** 			for(j = 0; j < 5; ++j)
 1235               		.loc 7 30 16 view .LVU391
  30:clock.c       **** 			for(j = 0; j < 5; ++j)
 1236               		.loc 7 30 16 view .LVU392
  30:clock.c       **** 			for(j = 0; j < 5; ++j)
 1237               		.loc 7 30 16 view .LVU393
 1238               	/* #APP */
 1239               	 ;  30 "clock.c" 1
 1240 0308 6491      		lpm r22, Z
 1241               		
 1242               	 ;  0 "" 2
 1243               	.LVL79:
  30:clock.c       **** 			for(j = 0; j < 5; ++j)
 1244               		.loc 7 30 16 view .LVU394
  30:clock.c       **** 			for(j = 0; j < 5; ++j)
 1245               		.loc 7 30 16 is_stmt 0 view .LVU395
 1246               	/* #NOAPP */
 1247               	.LBE105:
  31:clock.c       **** 			{
 1248               		.loc 7 31 4 is_stmt 1 view .LVU396
  31:clock.c       **** 			{
 1249               		.loc 7 31 17 view .LVU397
 1250 030a 8E2D      		mov r24,r14
 1251 030c 022E      		mov r0,r18
 1252 030e 00C0      		rjmp 2f
 1253               		1:
 1254 0310 880F      		lsl r24
 1255               		2:
 1256 0312 0A94      		dec r0
 1257 0314 02F4      		brpl 1b
 1258 0316 DE01      		movw r26,r28
 1259 0318 1196      		adiw r26,1
  35:clock.c       **** 				}
 1260               		.loc 7 35 25 is_stmt 0 view .LVU398
 1261 031a 40E0      		ldi r20,0
 1262 031c 50E0      		ldi r21,0
  33:clock.c       **** 				{
 1263               		.loc 7 33 8 view .LVU399
 1264 031e 70E0      		ldi r23,0
 1265               	.LVL80:
 1266               	.L37:
  33:clock.c       **** 				{
 1267               		.loc 7 33 5 is_stmt 1 view .LVU400
  33:clock.c       **** 				{
 1268               		.loc 7 33 8 is_stmt 0 view .LVU401
 1269 0320 6B01      		movw r12,r22
 1270 0322 042E      		mov r0,r20
 1271 0324 00C0      		rjmp 2f
 1272               		1:
 1273 0326 D594      		asr r13
 1274 0328 C794      		ror r12
 1275               		2:
 1276 032a 0A94      		dec r0
 1277 032c 02F4      		brpl 1b
  33:clock.c       **** 				{
 1278               		.loc 7 33 7 view .LVU402
 1279 032e C0FE      		sbrs r12,0
 1280 0330 00C0      		rjmp .L36
  35:clock.c       **** 				}
 1281               		.loc 7 35 6 is_stmt 1 view .LVU403
  35:clock.c       **** 				}
 1282               		.loc 7 35 19 is_stmt 0 view .LVU404
 1283 0332 1496      		adiw r26,4
 1284 0334 0C91      		ld r16,X
 1285 0336 1497      		sbiw r26,4
 1286 0338 082B      		or r16,r24
 1287 033a 1496      		adiw r26,4
 1288 033c 0C93      		st X,r16
 1289 033e 1497      		sbiw r26,4
 1290               	.L36:
  31:clock.c       **** 			{
 1291               		.loc 7 31 22 is_stmt 1 view .LVU405
 1292               	.LVL81:
  31:clock.c       **** 			{
 1293               		.loc 7 31 17 view .LVU406
 1294 0340 4F5F      		subi r20,-1
 1295 0342 5F4F      		sbci r21,-1
 1296               	.LVL82:
  31:clock.c       **** 			{
 1297               		.loc 7 31 17 is_stmt 0 view .LVU407
 1298 0344 1197      		sbiw r26,1
 1299 0346 4530      		cpi r20,5
 1300 0348 5105      		cpc r21,__zero_reg__
 1301 034a 01F4      		brne .L37
 1302               	.LBE108:
  28:clock.c       **** 		{
 1303               		.loc 7 28 21 is_stmt 1 view .LVU408
 1304               	.LVL83:
  28:clock.c       **** 		{
 1305               		.loc 7 28 21 is_stmt 0 view .LVU409
 1306 034c 3196      		adiw r30,1
 1307               	.LVL84:
  28:clock.c       **** 		{
 1308               		.loc 7 28 21 view .LVU410
 1309 034e 2F5F      		subi r18,-1
 1310 0350 3F4F      		sbci r19,-1
 1311               	.LVL85:
  28:clock.c       **** 		{
 1312               		.loc 7 28 21 view .LVU411
 1313 0352 00C0      		rjmp .L35
 1314               	.LVL86:
 1315               	.L33:
  28:clock.c       **** 		{
 1316               		.loc 7 28 21 view .LVU412
 1317               	.LBE109:
  44:clock.c       **** 	}
 1318               		.loc 7 44 3 is_stmt 1 view .LVU413
 1319 0354 00D0      		rcall mode_idle
 1320               	.LVL87:
 1321 0356 00C0      		rjmp .L39
 1322               	.L30:
 1323               	.LBE110:
 1324               	.LBE145:
 109:main.c        **** 	{
 1325               		.loc 2 109 7 view .LVU414
 109:main.c        **** 	{
 1326               		.loc 2 109 16 is_stmt 0 view .LVU415
 1327 0358 8091 0000 		lds r24,_mode
 109:main.c        **** 	{
 1328               		.loc 2 109 9 view .LVU416
 1329 035c 8530      		cpi r24,lo8(5)
 1330 035e 01F0      		breq .+2
 1331 0360 00C0      		rjmp .L32
 111:main.c        **** 	}
 1332               		.loc 2 111 3 is_stmt 1 view .LVU417
 1333               	.LBB146:
 1334               	.LBI146:
 1335               		.file 9 "text.c"
   1:text.c        **** static uint8_t _text[30] = { 36, 17, 14, 21, 21, 24, 36, 0xff };
   2:text.c        **** static uint8_t _text_offset;
   3:text.c        **** 
   4:text.c        **** static void text_update(void)
 1336               		.loc 9 4 13 view .LVU418
 1337               	.LBB147:
   5:text.c        **** {
   6:text.c        **** 	static uint8_t _cnt;
 1338               		.loc 9 6 2 view .LVU419
   7:text.c        **** 	uint8_t *s, c, i, j, o, w, offset;
 1339               		.loc 9 7 2 view .LVU420
   8:text.c        **** 
   9:text.c        **** 	if(++_cnt < 20)
 1340               		.loc 9 9 2 view .LVU421
 1341               		.loc 9 9 5 is_stmt 0 view .LVU422
 1342 0362 8091 0000 		lds r24,_cnt.6
 1343 0366 8F5F      		subi r24,lo8(-(1))
 1344               		.loc 9 9 4 view .LVU423
 1345 0368 8431      		cpi r24,lo8(20)
 1346 036a 00F4      		brsh .L41
 1347 036c 8093 0000 		sts _cnt.6,r24
 1348 0370 00C0      		rjmp .L32
 1349               	.L41:
  10:text.c        **** 	{
  11:text.c        **** 		return;
  12:text.c        **** 	}
  13:text.c        **** 
  14:text.c        **** 	_cnt = 0;
 1350               		.loc 9 14 2 is_stmt 1 view .LVU424
 1351               		.loc 9 14 7 is_stmt 0 view .LVU425
 1352 0372 1092 0000 		sts _cnt.6,__zero_reg__
  15:text.c        **** 
  16:text.c        **** 	s = _text;
 1353               		.loc 9 16 2 is_stmt 1 view .LVU426
 1354               	.LVL88:
  17:text.c        **** 	i = 0;
 1355               		.loc 9 17 2 view .LVU427
  18:text.c        **** 	offset = 0;
 1356               		.loc 9 18 2 view .LVU428
  19:text.c        **** 	while((c = *s++) != 0xFF)
 1357               		.loc 9 19 2 view .LVU429
  20:text.c        **** 	{
  21:text.c        **** 		o = pgm_read_byte(&_map[c]);
  22:text.c        **** 		w = offset + (pgm_read_byte(&_map[c + 1]) - o);
  23:text.c        **** 
  24:text.c        **** 		while(offset < w)
  25:text.c        **** 		{
  26:text.c        **** 			if(offset >= _text_offset && i < 5)
  27:text.c        **** 			{
  28:text.c        **** 				_display[i++] = pgm_read_byte(_font + o);
  29:text.c        **** 			}
  30:text.c        **** 
  31:text.c        **** 			++o;
  32:text.c        **** 			++offset;
  33:text.c        **** 		}
  34:text.c        **** 
  35:text.c        **** 		if(offset >= _text_offset && i < 5)
 1358               		.loc 9 35 13 is_stmt 0 view .LVU430
 1359 0376 5091 0000 		lds r21,_text_offset
  18:text.c        **** 	while((c = *s++) != 0xFF)
 1360               		.loc 9 18 9 view .LVU431
 1361 037a 30E0      		ldi r19,0
  17:text.c        **** 	offset = 0;
 1362               		.loc 9 17 4 view .LVU432
 1363 037c 20E0      		ldi r18,0
  16:text.c        **** 	i = 0;
 1364               		.loc 9 16 4 view .LVU433
 1365 037e A0E0      		ldi r26,lo8(_text)
 1366 0380 B0E0      		ldi r27,hi8(_text)
 1367               	.LVL89:
 1368               	.L42:
  19:text.c        **** 	{
 1369               		.loc 9 19 19 is_stmt 1 view .LVU434
  19:text.c        **** 	{
 1370               		.loc 9 19 11 is_stmt 0 view .LVU435
 1371 0382 8D91      		ld r24,X+
 1372               	.LVL90:
  19:text.c        **** 	{
 1373               		.loc 9 19 19 view .LVU436
 1374 0384 8F3F      		cpi r24,lo8(-1)
 1375 0386 01F4      		brne .L49
  36:text.c        **** 		{
  37:text.c        **** 			_display[i++] = 0;
  38:text.c        **** 		}
  39:text.c        **** 
  40:text.c        **** 		++offset;
  41:text.c        **** 	}
  42:text.c        **** 
  43:text.c        **** 	if(i < 5)
 1376               		.loc 9 43 2 is_stmt 1 view .LVU437
 1377               		.loc 9 43 4 is_stmt 0 view .LVU438
 1378 0388 2530      		cpi r18,lo8(5)
 1379 038a 00F0      		brlo .+2
 1380 038c 00C0      		rjmp .L50
  44:text.c        **** 	{
  45:text.c        **** 		_text_offset = 0;
 1381               		.loc 9 45 3 is_stmt 1 view .LVU439
 1382               		.loc 9 45 16 is_stmt 0 view .LVU440
 1383 038e 1092 0000 		sts _text_offset,__zero_reg__
  46:text.c        **** 		return;
 1384               		.loc 9 46 3 is_stmt 1 view .LVU441
 1385 0392 00C0      		rjmp .L32
 1386               	.L49:
  21:text.c        **** 		w = offset + (pgm_read_byte(&_map[c + 1]) - o);
 1387               		.loc 9 21 3 view .LVU442
 1388               	.LBB148:
  21:text.c        **** 		w = offset + (pgm_read_byte(&_map[c + 1]) - o);
 1389               		.loc 9 21 7 view .LVU443
 1390               	.LVL91:
  21:text.c        **** 		w = offset + (pgm_read_byte(&_map[c + 1]) - o);
 1391               		.loc 9 21 7 view .LVU444
  21:text.c        **** 		w = offset + (pgm_read_byte(&_map[c + 1]) - o);
 1392               		.loc 9 21 7 view .LVU445
 1393 0394 90E0      		ldi r25,0
 1394 0396 FC01      		movw r30,r24
 1395 0398 E050      		subi r30,lo8(-(_map))
 1396 039a F040      		sbci r31,hi8(-(_map))
 1397               	/* #APP */
 1398               	 ;  21 "text.c" 1
 1399 039c 4491      		lpm r20, Z
 1400               		
 1401               	 ;  0 "" 2
 1402               	.LVL92:
  21:text.c        **** 		w = offset + (pgm_read_byte(&_map[c + 1]) - o);
 1403               		.loc 9 21 7 view .LVU446
  21:text.c        **** 		w = offset + (pgm_read_byte(&_map[c + 1]) - o);
 1404               		.loc 9 21 7 is_stmt 0 view .LVU447
 1405               	/* #NOAPP */
 1406               	.LBE148:
  22:text.c        **** 
 1407               		.loc 9 22 3 is_stmt 1 view .LVU448
 1408               	.LBB149:
  22:text.c        **** 
 1409               		.loc 9 22 17 view .LVU449
  22:text.c        **** 
 1410               		.loc 9 22 17 view .LVU450
  22:text.c        **** 
 1411               		.loc 9 22 17 view .LVU451
 1412 039e 8050      		subi r24,lo8(-(_map+1))
 1413 03a0 9040      		sbci r25,hi8(-(_map+1))
 1414               	.LVL93:
  22:text.c        **** 
 1415               		.loc 9 22 17 is_stmt 0 view .LVU452
 1416 03a2 FC01      		movw r30,r24
 1417               	/* #APP */
 1418               	 ;  22 "text.c" 1
 1419 03a4 8491      		lpm r24, Z
 1420               		
 1421               	 ;  0 "" 2
 1422               	.LVL94:
  22:text.c        **** 
 1423               		.loc 9 22 17 is_stmt 1 view .LVU453
 1424               	/* #NOAPP */
 1425               	.LBE149:
  22:text.c        **** 
 1426               		.loc 9 22 5 is_stmt 0 view .LVU454
 1427 03a6 830F      		add r24,r19
 1428               	.LVL95:
  22:text.c        **** 
 1429               		.loc 9 22 5 view .LVU455
 1430 03a8 841B      		sub r24,r20
 1431               	.LVL96:
  24:text.c        **** 		{
 1432               		.loc 9 24 3 is_stmt 1 view .LVU456
  24:text.c        **** 		{
 1433               		.loc 9 24 8 is_stmt 0 view .LVU457
 1434 03aa 932F      		mov r25,r19
 1435               	.LBB150:
  28:text.c        **** 			}
 1436               		.loc 9 28 21 view .LVU458
 1437 03ac 431B      		sub r20,r19
 1438               	.LVL97:
 1439               	.L43:
  28:text.c        **** 			}
 1440               		.loc 9 28 21 view .LVU459
 1441               	.LBE150:
  24:text.c        **** 		{
 1442               		.loc 9 24 16 is_stmt 1 view .LVU460
 1443 03ae 9817      		cp r25,r24
 1444 03b0 00F0      		brlo .L45
  24:text.c        **** 		{
 1445               		.loc 9 24 16 is_stmt 0 view .LVU461
 1446 03b2 8317      		cp r24,r19
 1447 03b4 00F0      		brlo .L46
 1448 03b6 831B      		sub r24,r19
 1449               	.LVL98:
 1450               	.L47:
  24:text.c        **** 		{
 1451               		.loc 9 24 16 view .LVU462
 1452 03b8 830F      		add r24,r19
  35:text.c        **** 		{
 1453               		.loc 9 35 3 is_stmt 1 view .LVU463
  35:text.c        **** 		{
 1454               		.loc 9 35 5 is_stmt 0 view .LVU464
 1455 03ba 8517      		cp r24,r21
 1456 03bc 00F0      		brlo .L48
  35:text.c        **** 		{
 1457               		.loc 9 35 29 view .LVU465
 1458 03be 2530      		cpi r18,lo8(5)
 1459 03c0 00F4      		brsh .L48
  37:text.c        **** 		}
 1460               		.loc 9 37 4 is_stmt 1 view .LVU466
 1461               	.LVL99:
  37:text.c        **** 		}
 1462               		.loc 9 37 14 is_stmt 0 view .LVU467
 1463 03c2 E22F      		mov r30,r18
 1464 03c4 F0E0      		ldi r31,0
  37:text.c        **** 		}
 1465               		.loc 9 37 18 view .LVU468
 1466 03c6 E050      		subi r30,lo8(-(_display))
 1467 03c8 F040      		sbci r31,hi8(-(_display))
 1468 03ca 1082      		st Z,__zero_reg__
  37:text.c        **** 		}
 1469               		.loc 9 37 14 view .LVU469
 1470 03cc 2F5F      		subi r18,lo8(-(1))
 1471               	.LVL100:
 1472               	.L48:
  40:text.c        **** 	}
 1473               		.loc 9 40 3 is_stmt 1 view .LVU470
 1474 03ce 31E0      		ldi r19,lo8(1)
 1475 03d0 380F      		add r19,r24
 1476               	.LVL101:
  40:text.c        **** 	}
 1477               		.loc 9 40 3 is_stmt 0 view .LVU471
 1478 03d2 00C0      		rjmp .L42
 1479               	.LVL102:
 1480               	.L45:
  26:text.c        **** 			{
 1481               		.loc 9 26 4 is_stmt 1 view .LVU472
  26:text.c        **** 			{
 1482               		.loc 9 26 6 is_stmt 0 view .LVU473
 1483 03d4 9517      		cp r25,r21
 1484 03d6 00F0      		brlo .L44
  26:text.c        **** 			{
 1485               		.loc 9 26 30 view .LVU474
 1486 03d8 2530      		cpi r18,lo8(5)
 1487 03da 00F4      		brsh .L44
  28:text.c        **** 			}
 1488               		.loc 9 28 5 is_stmt 1 view .LVU475
 1489               	.LBB151:
  28:text.c        **** 			}
 1490               		.loc 9 28 21 view .LVU476
 1491               	.LVL103:
  28:text.c        **** 			}
 1492               		.loc 9 28 21 view .LVU477
  28:text.c        **** 			}
 1493               		.loc 9 28 21 view .LVU478
 1494 03dc E42F      		mov r30,r20
 1495 03de E90F      		add r30,r25
 1496 03e0 F0E0      		ldi r31,0
 1497 03e2 E050      		subi r30,lo8(-(_font))
 1498 03e4 F040      		sbci r31,hi8(-(_font))
 1499               	/* #APP */
 1500               	 ;  28 "text.c" 1
 1501 03e6 1491      		lpm r17, Z
 1502               		
 1503               	 ;  0 "" 2
 1504               	.LVL104:
  28:text.c        **** 			}
 1505               		.loc 9 28 21 view .LVU479
  28:text.c        **** 			}
 1506               		.loc 9 28 21 is_stmt 0 view .LVU480
 1507               	/* #NOAPP */
 1508               	.LBE151:
  28:text.c        **** 			}
 1509               		.loc 9 28 15 view .LVU481
 1510 03e8 622F      		mov r22,r18
 1511 03ea 70E0      		ldi r23,0
  28:text.c        **** 			}
 1512               		.loc 9 28 19 view .LVU482
 1513 03ec 6050      		subi r22,lo8(-(_display))
 1514 03ee 7040      		sbci r23,hi8(-(_display))
 1515 03f0 FB01      		movw r30,r22
 1516 03f2 1083      		st Z,r17
  28:text.c        **** 			}
 1517               		.loc 9 28 15 view .LVU483
 1518 03f4 2F5F      		subi r18,lo8(-(1))
 1519               	.LVL105:
 1520               	.L44:
  31:text.c        **** 			++offset;
 1521               		.loc 9 31 4 is_stmt 1 view .LVU484
  32:text.c        **** 		}
 1522               		.loc 9 32 4 view .LVU485
 1523 03f6 9F5F      		subi r25,lo8(-(1))
 1524               	.LVL106:
  32:text.c        **** 		}
 1525               		.loc 9 32 4 is_stmt 0 view .LVU486
 1526 03f8 00C0      		rjmp .L43
 1527               	.L46:
  32:text.c        **** 		}
 1528               		.loc 9 32 4 view .LVU487
 1529 03fa 80E0      		ldi r24,0
 1530               	.LVL107:
  32:text.c        **** 		}
 1531               		.loc 9 32 4 view .LVU488
 1532 03fc 00C0      		rjmp .L47
 1533               	.LVL108:
 1534               	.L50:
  47:text.c        **** 	}
  48:text.c        **** 
  49:text.c        **** 	++_text_offset;
 1535               		.loc 9 49 2 is_stmt 1 view .LVU489
 1536 03fe 5F5F      		subi r21,lo8(-(1))
 1537 0400 5093 0000 		sts _text_offset,r21
 1538 0404 00C0      		rjmp .L32
 1539               	.LVL109:
 1540               	.L53:
 1541               		.loc 9 49 2 is_stmt 0 view .LVU490
 1542               	.LBE147:
 1543               	.LBE146:
 1544               	.LBB152:
 1545               	.LBB134:
  23:button.c      **** 			}
  24:button.c      **** 			else if(button_ticks[i] == BUTTON_PRESS_TICKS)
 1546               		.loc 4 24 9 is_stmt 1 view .LVU491
 1547               		.loc 4 24 11 is_stmt 0 view .LVU492
 1548 0406 8C30      		cpi r24,lo8(12)
 1549 0408 01F0      		breq .+2
 1550 040a 00C0      		rjmp .L54
  25:button.c      **** 			{
  26:button.c      **** 				button_ticks[i] = BUTTON_PRESS_TICKS + 1;
 1551               		.loc 4 26 5 is_stmt 1 view .LVU493
 1552               		.loc 4 26 21 is_stmt 0 view .LVU494
 1553 040c 8DE0      		ldi r24,lo8(13)
 1554 040e 8083      		st Z,r24
  27:button.c      **** 				button_event(i);
 1555               		.loc 4 27 5 is_stmt 1 view .LVU495
 1556               	.LVL110:
 1557               	.LBB113:
 1558               	.LBI113:
 116:main.c        **** }
 117:main.c        **** 
 118:main.c        **** static void mode_idle_button(uint8_t button)
 119:main.c        **** {
 120:main.c        **** 	switch(button)
 121:main.c        **** 	{
 122:main.c        **** 		case 0:
 123:main.c        **** 			mode_clock();
 124:main.c        **** 			break;
 125:main.c        **** 
 126:main.c        **** 		case 1:
 127:main.c        **** 			mode_random();
 128:main.c        **** 			break;
 129:main.c        **** 
 130:main.c        **** 		case 2:
 131:main.c        **** 			mode_text();
 132:main.c        **** 			break;
 133:main.c        **** 
 134:main.c        **** 		case 3:
 135:main.c        **** 			mode_uart();
 136:main.c        **** 			break;
 137:main.c        **** 	}
 138:main.c        **** }
 139:main.c        **** 
 140:main.c        **** static void button_event(uint8_t button)
 1559               		.loc 2 140 13 view .LVU496
 1560               	.LBB114:
 141:main.c        **** {
 142:main.c        **** 	switch(_mode)
 1561               		.loc 2 142 2 view .LVU497
 1562 0410 8091 0000 		lds r24,_mode
 1563 0414 8130      		cpi r24,lo8(1)
 1564 0416 01F4      		brne .+2
 1565 0418 00C0      		rjmp .L55
 1566 041a 00F0      		brlo .L56
 1567 041c 8250      		subi r24,lo8(-(-2))
 1568 041e 8430      		cpi r24,lo8(4)
 1569 0420 00F0      		brlo .+2
 1570 0422 00C0      		rjmp .L54
 1571               	.L120:
 143:main.c        **** 	{
 144:main.c        **** 		case MODE_IDLE:
 145:main.c        **** 			mode_idle_button(button);
 146:main.c        **** 			break;
 147:main.c        **** 
 148:main.c        **** 		case MODE_UART:
 149:main.c        **** 			mode_uart_button();
 150:main.c        **** 			break;
 151:main.c        **** 
 152:main.c        **** 		case MODE_CLOCK:
 153:main.c        **** 		case MODE_ALARM:
 154:main.c        **** 		case MODE_RANDOM:
 155:main.c        **** 		case MODE_TEXT:
 156:main.c        **** 			mode_idle();
 1572               		.loc 2 156 4 view .LVU498
 1573 0424 00D0      		rcall mode_idle
 1574               	.LVL111:
 157:main.c        **** 			break;
 1575               		.loc 2 157 4 view .LVU499
 1576 0426 00C0      		rjmp .L54
 1577               	.L56:
 145:main.c        **** 			break;
 1578               		.loc 2 145 4 view .LVU500
 1579               	.LVL112:
 1580               	.LBB115:
 1581               	.LBI115:
 118:main.c        **** {
 1582               		.loc 2 118 13 view .LVU501
 1583               	.LBB116:
 120:main.c        **** 	{
 1584               		.loc 2 120 2 view .LVU502
 1585 0428 0230      		cpi r16,lo8(2)
 1586 042a 01F0      		breq .L58
 1587 042c 0330      		cpi r16,lo8(3)
 1588 042e 01F0      		breq .L59
 1589 0430 0130      		cpi r16,lo8(1)
 1590 0432 01F0      		breq .L60
 123:main.c        **** 			break;
 1591               		.loc 2 123 4 view .LVU503
 1592               	.LBB117:
 1593               	.LBI117:
  48:clock.c       **** }
  49:clock.c       **** 
  50:clock.c       **** static void mode_clock(void)
 1594               		.loc 7 50 13 view .LVU504
 1595               	.LBB118:
  51:clock.c       **** {
  52:clock.c       **** 	_buf[0] = _hours / 10;
 1596               		.loc 7 52 2 view .LVU505
 1597               		.loc 7 52 10 is_stmt 0 view .LVU506
 1598 0434 8091 0000 		lds r24,_hours
 1599 0438 2AE0      		ldi r18,lo8(10)
 1600 043a 622F      		mov r22,r18
 1601 043c 00D0      		rcall __udivmodqi4
 1602 043e 8093 0000 		sts _buf,r24
  53:clock.c       **** 	_buf[1] = _hours % 10;
 1603               		.loc 7 53 2 is_stmt 1 view .LVU507
 1604               		.loc 7 53 10 is_stmt 0 view .LVU508
 1605 0442 8091 0000 		lds r24,_hours
 1606 0446 00D0      		rcall __udivmodqi4
 1607 0448 9093 0000 		sts _buf+1,r25
  54:clock.c       **** 	_buf[2] = _minutes / 10;
 1608               		.loc 7 54 2 is_stmt 1 view .LVU509
 1609               		.loc 7 54 10 is_stmt 0 view .LVU510
 1610 044c 8091 0000 		lds r24,_minutes
 1611 0450 00D0      		rcall __udivmodqi4
 1612 0452 8093 0000 		sts _buf+2,r24
  55:clock.c       **** 	_buf[3] = _minutes % 10;
 1613               		.loc 7 55 2 is_stmt 1 view .LVU511
 1614               		.loc 7 55 10 is_stmt 0 view .LVU512
 1615 0456 8091 0000 		lds r24,_minutes
 1616 045a 00D0      		rcall __udivmodqi4
 1617 045c 9093 0000 		sts _buf+3,r25
  56:clock.c       **** 	_buf[4] = _seconds / 10;
 1618               		.loc 7 56 2 is_stmt 1 view .LVU513
 1619               		.loc 7 56 10 is_stmt 0 view .LVU514
 1620 0460 8091 0000 		lds r24,_seconds
 1621 0464 00D0      		rcall __udivmodqi4
 1622 0466 8093 0000 		sts _buf+4,r24
  57:clock.c       **** 	_buf[5] = _seconds % 10;
 1623               		.loc 7 57 2 is_stmt 1 view .LVU515
 1624               		.loc 7 57 10 is_stmt 0 view .LVU516
 1625 046a 8091 0000 		lds r24,_seconds
 1626 046e 00D0      		rcall __udivmodqi4
 1627 0470 9093 0000 		sts _buf+5,r25
  58:clock.c       **** 	_cur = 0;
 1628               		.loc 7 58 2 is_stmt 1 view .LVU517
 1629               		.loc 7 58 7 is_stmt 0 view .LVU518
 1630 0474 1092 0000 		sts _cur,__zero_reg__
  59:clock.c       **** 	_mode = MODE_CLOCK;
 1631               		.loc 7 59 2 is_stmt 1 view .LVU519
 1632               		.loc 7 59 8 is_stmt 0 view .LVU520
 1633 0478 82E0      		ldi r24,lo8(2)
 1634               	.L121:
 1635               	.LBE118:
 1636               	.LBE117:
 1637               	.LBB119:
 1638               	.LBB120:
  63:uart.c        **** }
 1639               		.loc 3 63 8 view .LVU521
 1640 047a 8093 0000 		sts _mode,r24
  64:uart.c        **** 
 1641               		.loc 3 64 1 view .LVU522
 1642 047e 00C0      		rjmp .L54
 1643               	.L60:
 1644               	.LBE120:
 1645               	.LBE119:
 127:main.c        **** 			break;
 1646               		.loc 2 127 4 is_stmt 1 view .LVU523
 1647               	.LBB125:
 1648               	.LBI125:
 1649               		.file 10 "random.c"
   1:random.c      **** static const uint8_t _die[6 * 5] PROGMEM =
   2:random.c      **** {
   3:random.c      **** 	0b00000UL,
   4:random.c      **** 	0b00000UL,
   5:random.c      **** 	0b00100UL,
   6:random.c      **** 	0b00000UL,
   7:random.c      **** 	0b00000UL,
   8:random.c      **** 
   9:random.c      **** 	0b00001UL,
  10:random.c      **** 	0b00000UL,
  11:random.c      **** 	0b00000UL,
  12:random.c      **** 	0b00000UL,
  13:random.c      **** 	0b10000UL,
  14:random.c      **** 
  15:random.c      **** 	0b00001UL,
  16:random.c      **** 	0b00000UL,
  17:random.c      **** 	0b00100UL,
  18:random.c      **** 	0b00000UL,
  19:random.c      **** 	0b10000UL,
  20:random.c      **** 
  21:random.c      **** 	0b10001UL,
  22:random.c      **** 	0b00000UL,
  23:random.c      **** 	0b00000UL,
  24:random.c      **** 	0b00000UL,
  25:random.c      **** 	0b10001UL,
  26:random.c      **** 
  27:random.c      **** 	0b10001UL,
  28:random.c      **** 	0b00000UL,
  29:random.c      **** 	0b00100UL,
  30:random.c      **** 	0b00000UL,
  31:random.c      **** 	0b10001UL,
  32:random.c      **** 
  33:random.c      **** 	0b10001UL,
  34:random.c      **** 	0b00000UL,
  35:random.c      **** 	0b10001UL,
  36:random.c      **** 	0b00000UL,
  37:random.c      **** 	0b10001UL,
  38:random.c      **** };
  39:random.c      **** 
  40:random.c      **** static void mode_random(void)
 1650               		.loc 10 40 13 view .LVU524
 1651               	.LBB126:
  41:random.c      **** {
  42:random.c      **** 	_mode = MODE_RANDOM;
 1652               		.loc 10 42 2 view .LVU525
 1653               		.loc 10 42 8 is_stmt 0 view .LVU526
 1654 0480 84E0      		ldi r24,lo8(4)
 1655 0482 8093 0000 		sts _mode,r24
  43:random.c      **** 	display_set_P(&_die[5 * (_ticks % 6)]);
 1656               		.loc 10 43 2 is_stmt 1 view .LVU527
 1657               		.loc 10 43 34 is_stmt 0 view .LVU528
 1658 0486 8091 0000 		lds r24,_ticks
 1659 048a 66E0      		ldi r22,lo8(6)
 1660 048c 00D0      		rcall __udivmodqi4
 1661               		.loc 10 43 24 view .LVU529
 1662 048e 892F      		mov r24,r25
 1663 0490 90E0      		ldi r25,0
 1664 0492 65E0      		ldi r22,lo8(5)
 1665 0494 70E0      		ldi r23,0
 1666 0496 00D0      		rcall __mulhi3
 1667               		.loc 10 43 2 view .LVU530
 1668 0498 8050      		subi r24,lo8(-(_die))
 1669 049a 9040      		sbci r25,hi8(-(_die))
 1670 049c 00D0      		rcall display_set_P
 1671               	.LVL113:
  44:random.c      **** }
 1672               		.loc 10 44 1 view .LVU531
 1673 049e 00C0      		rjmp .L54
 1674               	.L58:
 1675               	.LBE126:
 1676               	.LBE125:
 131:main.c        **** 			break;
 1677               		.loc 2 131 4 is_stmt 1 view .LVU532
 1678               	.LBB127:
 1679               	.LBI127:
  50:text.c        **** }
  51:text.c        **** 
  52:text.c        **** static void mode_text(void)
 1680               		.loc 9 52 13 view .LVU533
 1681               	.LBB128:
  53:text.c        **** {
  54:text.c        **** 	_text_offset = 0;
 1682               		.loc 9 54 2 view .LVU534
 1683               		.loc 9 54 15 is_stmt 0 view .LVU535
 1684 04a0 1092 0000 		sts _text_offset,__zero_reg__
  55:text.c        **** 	_mode = MODE_TEXT;
 1685               		.loc 9 55 2 is_stmt 1 view .LVU536
 1686               		.loc 9 55 8 is_stmt 0 view .LVU537
 1687 04a4 85E0      		ldi r24,lo8(5)
 1688 04a6 00C0      		rjmp .L121
 1689               	.L59:
 1690               	.LBE128:
 1691               	.LBE127:
 135:main.c        **** 			break;
 1692               		.loc 2 135 4 is_stmt 1 view .LVU538
 1693               	.LBB129:
 1694               	.LBI119:
  59:uart.c        **** {
 1695               		.loc 3 59 13 view .LVU539
 1696               	.LBB124:
  61:uart.c        **** 	uart_init();
 1697               		.loc 3 61 2 view .LVU540
 1698 04a8 80E0      		ldi r24,lo8(_uart_icon)
 1699 04aa 90E0      		ldi r25,hi8(_uart_icon)
 1700 04ac 00D0      		rcall display_set_P
 1701               	.LVL114:
  62:uart.c        **** 	_mode = MODE_UART;
 1702               		.loc 3 62 2 view .LVU541
 1703               	.LBB121:
 1704               	.LBI121:
   6:uart.c        **** {
 1705               		.loc 3 6 13 view .LVU542
 1706               	.LBB122:
   9:uart.c        **** 
 1707               		.loc 3 9 2 view .LVU543
   9:uart.c        **** 
 1708               		.loc 3 9 8 is_stmt 0 view .LVU544
 1709 04ae 82B3      		in r24,0x12
 1710 04b0 8C7F      		andi r24,lo8(-4)
 1711 04b2 82BB      		out 0x12,r24
  11:uart.c        **** 	UCSRC = (1 << UCSZ1) | (1 << UCSZ0);
 1712               		.loc 3 11 2 is_stmt 1 view .LVU545
  11:uart.c        **** 	UCSRC = (1 << UCSZ1) | (1 << UCSZ0);
 1713               		.loc 3 11 8 is_stmt 0 view .LVU546
 1714 04b4 88E1      		ldi r24,lo8(24)
 1715 04b6 8AB9      		out 0xa,r24
  12:uart.c        **** 	UBRRL = (uint8_t)(_BAUD & 0xFF);
 1716               		.loc 3 12 2 is_stmt 1 view .LVU547
  12:uart.c        **** 	UBRRL = (uint8_t)(_BAUD & 0xFF);
 1717               		.loc 3 12 8 is_stmt 0 view .LVU548
 1718 04b8 86E0      		ldi r24,lo8(6)
 1719 04ba 83B9      		out 0x3,r24
  13:uart.c        **** 	UBRRH = (uint8_t)((_BAUD >> 8) & 0xFF);
 1720               		.loc 3 13 2 is_stmt 1 view .LVU549
  13:uart.c        **** 	UBRRH = (uint8_t)((_BAUD >> 8) & 0xFF);
 1721               		.loc 3 13 8 is_stmt 0 view .LVU550
 1722 04bc 8FE5      		ldi r24,lo8(95)
 1723 04be 89B9      		out 0x9,r24
  14:uart.c        **** 
 1724               		.loc 3 14 2 is_stmt 1 view .LVU551
  14:uart.c        **** 
 1725               		.loc 3 14 8 is_stmt 0 view .LVU552
 1726 04c0 12B8      		out 0x2,__zero_reg__
  16:uart.c        **** }
 1727               		.loc 3 16 2 is_stmt 1 view .LVU553
 1728               	.LBE122:
  16:uart.c        **** }
 1729               		.loc 3 16 16 view .LVU554
  16:uart.c        **** }
 1730               		.loc 3 16 16 view .LVU555
 1731               	.LBB123:
  16:uart.c        **** }
 1732               		.loc 3 16 2 is_stmt 0 view .LVU556
 1733 04c2 80E0      		ldi r24,lo8(__c.5)
 1734 04c4 90E0      		ldi r25,hi8(__c.5)
 1735 04c6 00D0      		rcall uart_tx_str_P
 1736               	.LVL115:
 1737               	.LBE123:
 1738               	.LBE121:
  63:uart.c        **** }
 1739               		.loc 3 63 2 is_stmt 1 view .LVU557
  63:uart.c        **** }
 1740               		.loc 3 63 8 is_stmt 0 view .LVU558
 1741 04c8 81E0      		ldi r24,lo8(1)
 1742 04ca 00C0      		rjmp .L121
 1743               	.LVL116:
 1744               	.L55:
  63:uart.c        **** }
 1745               		.loc 3 63 8 view .LVU559
 1746               	.LBE124:
 1747               	.LBE129:
 1748               	.LBE116:
 1749               	.LBE115:
 149:main.c        **** 			break;
 1750               		.loc 2 149 4 is_stmt 1 view .LVU560
 1751               	.LBB130:
 1752               	.LBI130:
  66:uart.c        **** {
 1753               		.loc 3 66 13 view .LVU561
 1754               	.LBB131:
  68:uart.c        **** 	button_init();
 1755               		.loc 3 68 2 view .LVU562
  68:uart.c        **** 	button_init();
 1756               		.loc 3 68 8 is_stmt 0 view .LVU563
 1757 04cc 1AB8      		out 0xa,__zero_reg__
  69:uart.c        **** 	mode_idle();
 1758               		.loc 3 69 2 is_stmt 1 view .LVU564
 1759               	.LBB132:
 1760               	.LBI132:
   8:button.c      **** {
 1761               		.loc 4 8 13 view .LVU565
 1762               	.LBB133:
  10:button.c      **** }
 1763               		.loc 4 10 2 view .LVU566
 1764 04ce 82B3      		in r24,0x12
  10:button.c      **** }
 1765               		.loc 4 10 8 is_stmt 0 view .LVU567
 1766 04d0 8F60      		ori r24,lo8(15)
 1767 04d2 82BB      		out 0x12,r24
 1768               	.LBE133:
 1769               	.LBE132:
  70:uart.c        **** }
 1770               		.loc 3 70 2 is_stmt 1 view .LVU568
 1771 04d4 00C0      		rjmp .L120
 1772               	.LVL117:
 1773               	.L52:
  70:uart.c        **** }
 1774               		.loc 3 70 2 is_stmt 0 view .LVU569
 1775               	.LBE131:
 1776               	.LBE130:
 1777               	.LBE114:
 1778               	.LBE113:
  28:button.c      **** 			}
  29:button.c      **** 		}
  30:button.c      **** 		else
  31:button.c      **** 		{
  32:button.c      **** 			button_ticks[i] = 0;
 1779               		.loc 4 32 4 is_stmt 1 view .LVU570
 1780               		.loc 4 32 20 is_stmt 0 view .LVU571
 1781 04d6 1082      		st Z,__zero_reg__
 1782 04d8 00C0      		rjmp .L54
 1783               	.LVL118:
 1784               	.L65:
 1785               		.loc 4 32 20 view .LVU572
 1786               	.LBE134:
 1787               	.LBE152:
 1788               	.LBB153:
 1789               	.LBB143:
 1790               	.LBB140:
  31:alarm.c       **** 				display_set_P(display_clear);
 1791               		.loc 8 31 5 is_stmt 1 view .LVU573
  31:alarm.c       **** 				display_set_P(display_clear);
 1792               		.loc 8 31 11 is_stmt 0 view .LVU574
 1793 04da 1092 0000 		sts _beep,__zero_reg__
  32:alarm.c       **** 			}
 1794               		.loc 8 32 5 is_stmt 1 view .LVU575
 1795 04de 80E0      		ldi r24,lo8(display_clear)
 1796 04e0 90E0      		ldi r25,hi8(display_clear)
 1797 04e2 00D0      		rcall display_set_P
 1798               	.LVL119:
 1799 04e4 00C0      		rjmp .L66
 1800               	.L67:
  41:alarm.c       **** 			{
 1801               		.loc 8 41 4 view .LVU576
  41:alarm.c       **** 			{
 1802               		.loc 8 41 7 is_stmt 0 view .LVU577
 1803 04e6 1F5F      		subi r17,lo8(-(1))
  41:alarm.c       **** 			{
 1804               		.loc 8 41 6 view .LVU578
 1805 04e8 1093 0000 		sts i.2,r17
 1806 04ec 1930      		cpi r17,lo8(9)
 1807 04ee 01F0      		breq .+2
 1808 04f0 00C0      		rjmp .L64
  43:alarm.c       **** 				i = 0;
 1809               		.loc 8 43 5 is_stmt 1 view .LVU579
  43:alarm.c       **** 				i = 0;
 1810               		.loc 8 43 11 is_stmt 0 view .LVU580
 1811 04f2 8FE0      		ldi r24,lo8(15)
 1812 04f4 8093 0000 		sts delay.3,r24
  44:alarm.c       **** 			}
 1813               		.loc 8 44 5 is_stmt 1 view .LVU581
  44:alarm.c       **** 			}
 1814               		.loc 8 44 7 is_stmt 0 view .LVU582
 1815 04f8 1092 0000 		sts i.2,__zero_reg__
 1816 04fc 00C0      		rjmp .L64
 1817               	.L62:
 1818               	.LBE140:
 1819               		.loc 8 48 7 is_stmt 1 view .LVU583
 1820               		.loc 8 48 19 is_stmt 0 view .LVU584
 1821 04fe 8091 0000 		lds r24,_seconds
 1822               		.loc 8 48 24 view .LVU585
 1823 0502 802B      		or r24,r16
 1824 0504 8111      		cpse r24,__zero_reg__
 1825 0506 00C0      		rjmp .L64
 1826               	.LBB141:
  49:alarm.c       **** 	{
  50:alarm.c       **** 		volatile Alarm *a = &_alarms[_alarms_count - 1];
 1827               		.loc 8 50 3 is_stmt 1 view .LVU586
 1828               		.loc 8 50 46 is_stmt 0 view .LVU587
 1829 0508 8091 0000 		lds r24,_alarms_count
 1830               		.loc 8 50 19 view .LVU588
 1831 050c 8150      		subi r24,1
 1832 050e 990B      		sbc r25,r25
 1833 0510 67E0      		ldi r22,lo8(7)
 1834 0512 70E0      		ldi r23,0
 1835 0514 00D0      		rcall __mulhi3
 1836 0516 FC01      		movw r30,r24
 1837 0518 E050      		subi r30,lo8(-(_alarms))
 1838 051a F040      		sbci r31,hi8(-(_alarms))
 1839               	.LVL120:
  51:alarm.c       **** 		while(a >= _alarms)
 1840               		.loc 8 51 3 is_stmt 1 view .LVU589
 1841               	.L69:
 1842               		.loc 8 51 11 view .LVU590
 1843 051c 80E0      		ldi r24,hi8(_alarms)
 1844 051e E030      		cpi r30,lo8(_alarms)
 1845 0520 F807      		cpc r31,r24
 1846 0522 00F0      		brlo .L73
  52:alarm.c       **** 		{
  53:alarm.c       **** 			if(a->Minutes == _minutes &&
 1847               		.loc 8 53 4 view .LVU591
 1848               		.loc 8 53 8 is_stmt 0 view .LVU592
 1849 0524 9081      		ld r25,Z
 1850               		.loc 8 53 18 view .LVU593
 1851 0526 8091 0000 		lds r24,_minutes
 1852               		.loc 8 53 6 view .LVU594
 1853 052a 9813      		cpse r25,r24
 1854 052c 00C0      		rjmp .L70
  54:alarm.c       **** 				a->Hours == _hours)
 1855               		.loc 8 54 6 view .LVU595
 1856 052e 9181      		ldd r25,Z+1
 1857               		.loc 8 54 14 view .LVU596
 1858 0530 8091 0000 		lds r24,_hours
  53:alarm.c       **** 				a->Hours == _hours)
 1859               		.loc 8 53 30 view .LVU597
 1860 0534 9813      		cpse r25,r24
 1861 0536 00C0      		rjmp .L70
  55:alarm.c       **** 			{
  56:alarm.c       **** 				_alarm_cur = a;
 1862               		.loc 8 56 5 is_stmt 1 view .LVU598
 1863               		.loc 8 56 16 is_stmt 0 view .LVU599
 1864 0538 F093 0000 		sts _alarm_cur+1,r31
 1865 053c E093 0000 		sts _alarm_cur,r30
  57:alarm.c       **** 				_mode = MODE_ALARM;
 1866               		.loc 8 57 5 is_stmt 1 view .LVU600
 1867               		.loc 8 57 11 is_stmt 0 view .LVU601
 1868 0540 83E0      		ldi r24,lo8(3)
 1869 0542 8093 0000 		sts _mode,r24
  58:alarm.c       **** 				break;
 1870               		.loc 8 58 5 is_stmt 1 view .LVU602
 1871               	.LVL121:
 1872               		.loc 8 58 5 is_stmt 0 view .LVU603
 1873               	.LBE141:
 1874               	.LBE143:
 1875               	.LBE153:
 1876               	.LBE155:
 1877               	.LBE157:
  27:timer.c       **** 		{
 1878               		.loc 5 27 3 is_stmt 1 view .LVU604
 1879               	.L73:
  27:timer.c       **** 		{
 1880               		.loc 5 27 6 is_stmt 0 view .LVU605
 1881 0546 81E0      		ldi r24,lo8(1)
 1882               	.L71:
  27:timer.c       **** 		{
 1883               		.loc 5 27 5 view .LVU606
 1884 0548 8093 0000 		sts _ticks,r24
 1885 054c 00C0      		rjmp .L29
 1886               	.LVL122:
 1887               	.L70:
 1888               	.LBB158:
 1889               	.LBB156:
 1890               	.LBB154:
 1891               	.LBB144:
 1892               	.LBB142:
  59:alarm.c       **** 			}
  60:alarm.c       **** 
  61:alarm.c       **** 			--a;
 1893               		.loc 8 61 4 is_stmt 1 view .LVU607
 1894 054e 3797      		sbiw r30,7
 1895               	.LVL123:
 1896               		.loc 8 61 4 is_stmt 0 view .LVU608
 1897 0550 00C0      		rjmp .L69
 1898               	.LVL124:
 1899               	.L77:
 1900               		.loc 8 61 4 view .LVU609
 1901               	.LBE142:
 1902               	.LBE144:
 1903               	.LBE154:
 1904               	.LBE156:
 1905               	.LBE158:
 1906               	.LBE159:
 1907               	.LBE172:
 1908               	.LBB173:
 1909               	.LBB164:
 1910               	.LBB163:
  11:piezo.c       **** 		}
  12:piezo.c       **** 		else
  13:piezo.c       **** 		{
  14:piezo.c       **** 			PORTD &= ~(1 << 4);
 1911               		.loc 6 14 4 is_stmt 1 view .LVU610
 1912               		.loc 6 14 10 is_stmt 0 view .LVU611
 1913 0552 9498      		cbi 0x12,4
 1914 0554 00C0      		rjmp .L76
 1915               	.LVL125:
 1916               	.L78:
 1917               		.loc 6 14 10 view .LVU612
 1918               	.LBE163:
 1919               	.LBE164:
 1920               	.LBE173:
 1921               	.LBB174:
 1922               	.LBB171:
 102:led.c         **** 	{
 1923               		.loc 1 102 7 is_stmt 1 view .LVU613
 102:led.c         **** 	{
 1924               		.loc 1 102 9 is_stmt 0 view .LVU614
 1925 0556 8130      		cpi r24,lo8(1)
 1926 0558 01F0      		breq .+2
 1927 055a 00C0      		rjmp .L84
 105:led.c         **** 		{
 1928               		.loc 1 105 3 is_stmt 1 view .LVU615
 105:led.c         **** 		{
 1929               		.loc 1 105 8 is_stmt 0 view .LVU616
 1930 055c 8091 0000 		lds r24,i.0
 105:led.c         **** 		{
 1931               		.loc 1 105 5 view .LVU617
 1932 0560 982F      		mov r25,r24
 1933 0562 9D7F      		andi r25,lo8(-3)
 1934 0564 9923      		tst r25
 1935 0566 01F0      		breq .L86
 105:led.c         **** 		{
 1936               		.loc 1 105 23 view .LVU618
 1937 0568 8430      		cpi r24,lo8(4)
 1938 056a 01F0      		breq .+2
 1939 056c 00C0      		rjmp .L84
 1940               	.L86:
 107:led.c         **** 		}
 1941               		.loc 1 107 4 is_stmt 1 view .LVU619
 1942               	.LBB169:
 1943               	.LBI169:
  87:led.c         **** {
 1944               		.loc 1 87 13 view .LVU620
 1945               	.LBB170:
  89:led.c         **** 	PORTB |= (1 << 0);
 1946               		.loc 1 89 2 view .LVU621
  89:led.c         **** 	PORTB |= (1 << 0);
 1947               		.loc 1 89 8 is_stmt 0 view .LVU622
 1948 056e C29A      		sbi 0x18,2
  90:led.c         **** 	PORTD |= (1 << 5);
 1949               		.loc 1 90 2 is_stmt 1 view .LVU623
  90:led.c         **** 	PORTD |= (1 << 5);
 1950               		.loc 1 90 8 is_stmt 0 view .LVU624
 1951 0570 C09A      		sbi 0x18,0
  91:led.c         **** }
 1952               		.loc 1 91 2 is_stmt 1 view .LVU625
  91:led.c         **** }
 1953               		.loc 1 91 8 is_stmt 0 view .LVU626
 1954 0572 959A      		sbi 0x12,5
  92:led.c         **** 
 1955               		.loc 1 92 1 view .LVU627
 1956 0574 00C0      		rjmp .L84
 1957               	.L87:
 1958               	.LBE170:
 1959               	.LBE169:
 112:led.c         **** 	{
 113:led.c         **** 		sd = 0;
 1960               		.loc 1 113 3 is_stmt 1 view .LVU628
 1961               		.loc 1 113 6 is_stmt 0 view .LVU629
 1962 0576 1092 0000 		sts sd.1,__zero_reg__
 114:led.c         **** 		if(++i == 5)
 1963               		.loc 1 114 3 is_stmt 1 view .LVU630
 1964               		.loc 1 114 6 is_stmt 0 view .LVU631
 1965 057a 8091 0000 		lds r24,i.0
 1966 057e 91E0      		ldi r25,lo8(1)
 1967 0580 980F      		add r25,r24
 1968               		.loc 1 114 5 view .LVU632
 1969 0582 8430      		cpi r24,lo8(4)
 1970 0584 01F0      		breq .L89
 1971 0586 9093 0000 		sts i.0,r25
 1972 058a 00C0      		rjmp .L27
 1973               	.L89:
 115:led.c         **** 		{
 116:led.c         **** 			i = 0;
 1974               		.loc 1 116 4 is_stmt 1 view .LVU633
 1975               		.loc 1 116 6 is_stmt 0 view .LVU634
 1976 058c 1092 0000 		sts i.0,__zero_reg__
 1977               	.LBE171:
 1978               	.LBE174:
 101:main.c        **** 
 1979               		.loc 2 101 1 view .LVU635
 1980 0590 00C0      		rjmp .L27
 1981               		.cfi_endproc
 1982               	.LFE37:
 1984               		.local	i.0
 1985               		.comm	i.0,1,1
 1986               		.local	sd.1
 1987               		.comm	sd.1,1,1
 1988               		.local	i.2
 1989               		.comm	i.2,1,1
 1990               		.data
 1993               	delay.3:
 1994 0000 0F        		.byte	15
 1995               		.local	cnt.4
 1996               		.comm	cnt.4,1,1
 1997               		.section	.progmem.data,"a",@progbits
 2000               	__c.5:
 2001 0000 5244 590A 		.string	"RDY\n"
 2001      00
 2002               		.local	_cnt.6
 2003               		.comm	_cnt.6,1,1
 2004               		.local	_cnt.7
 2005               		.comm	_cnt.7,1,1
 2008               	__c.8:
 2009 0005 4143 4B0A 		.string	"ACK\n"
 2009      00
 2010               		.local	_text_offset
 2011               		.comm	_text_offset,1,1
 2012               		.data
 2015               	_text:
 2016 0001 2411 0E15 		.string	"$\021\016\025\025\030$\377"
 2016      1518 24FF 
 2016      00
 2017 000a 0000 0000 		.zero	21
 2017      0000 0000 
 2017      0000 0000 
 2017      0000 0000 
 2017      0000 0000 
 2018               		.section	.progmem.data,"a",@progbits
 2021               	_die:
 2022 000a 00        		.string	""
 2023 000b 00        		.string	""
 2024 000c 0400      		.string	"\004"
 2025 000e 00        		.string	""
 2026 000f 0100      		.string	"\001"
 2027 0011 00        		.string	""
 2028 0012 00        		.string	""
 2029 0013 1001 00   		.string	"\020\001"
 2030 0016 0400      		.string	"\004"
 2031 0018 1011 00   		.string	"\020\021"
 2032 001b 00        		.string	""
 2033 001c 00        		.string	""
 2034 001d 1111 00   		.string	"\021\021"
 2035 0020 0400      		.string	"\004"
 2036 0022 1111 00   		.string	"\021\021"
 2037 0025 1100      		.string	"\021"
 2038 0027 11        		.ascii	"\021"
 2039               		.local	_alarm_cur
 2040               		.comm	_alarm_cur,2,1
 2041               		.local	_alarms
 2042               		.comm	_alarms,28,1
 2043               		.local	_alarms_count
 2044               		.comm	_alarms_count,1,1
 2047               	_uart_icon:
 2048 0028 081F 080B 		.ascii	"\b\037\b\013\n"
 2048      0A
 2049               		.local	_buf
 2050               		.comm	_buf,6,1
 2051               		.local	_cur
 2052               		.comm	_cur,1,1
 2055               	_map:
 2056 002d 00        		.string	""
 2057 002e 0306 0A0D 		.ascii	"\003\006\n\r\020\023\026\031\034\037#'*.148<?CGJOSW[`dhkosx|"
 2057      1013 1619 
 2057      1C1F 2327 
 2057      2A2E 3134 
 2057      383C 3F43 
 2058 0050 8084 88   		.ascii	"\200\204\210"
 2061               	_font:
 2062 0053 1F11 1F12 		.string	"\037\021\037\022\037\020\022\031\025\022\025\025\037\007\004\037\027\025\035\037\025\035\
 2062      1F10 1219 
 2062      1512 1515 
 2062      1F07 041F 
 2062      1715 1D1F 
 2063 00d8 00        		.string	""
 2064 00d9 00        		.string	""
 2065 00da 00        		.string	""
 2066               		.local	button_ticks
 2067               		.comm	button_ticks,4,1
 2068               		.local	_mode
 2069               		.comm	_mode,1,1
 2070               		.local	_beep
 2071               		.comm	_beep,1,1
 2072               		.local	_hours
 2073               		.comm	_hours,1,1
 2074               		.local	_minutes
 2075               		.comm	_minutes,1,1
 2076               		.local	_seconds
 2077               		.comm	_seconds,1,1
 2078               		.local	_ticks
 2079               		.comm	_ticks,1,1
 2080               		.local	_subticks
 2081               		.comm	_subticks,1,1
 2084               	display_clear:
 2085 00db 0000 0000 		.zero	5
 2085      00
 2086               		.local	_display
 2087               		.comm	_display,5,1
 2088               		.text
 2089               	.Letext0:
 2090               		.file 11 "/usr/lib/gcc/avr/12.2.0/include/stdint-gcc.h"
 2091               		.file 12 "font.c"